 main_vc2008_deb

 Timestamp is 506d4cc4 (Thu Oct 04 01:45:56 2012)

 Preferred load address is 00400000

 Start         Length     Name                   Class
 0001:00000000 0006e51aH .text                   CODE
 0001:0006e520 000020ecH .text$x                 CODE
 0001:00070610 00001025H .text$yc                CODE
 0001:00071640 00001065H .text$yd                CODE
 0002:00000000 00000104H .CRT$XCA                DATA
 0002:00000104 00000104H .CRT$XCC                DATA
 0002:00000208 00000104H .CRT$XCZ                DATA
 0002:0000030c 00000104H .CRT$XIA                DATA
 0002:00000410 00000118H .CRT$XIC                DATA
 0002:00000528 00000104H .CRT$XIY                DATA
 0002:0000062c 00000104H .CRT$XIZ                DATA
 0002:00000730 00000104H .CRT$XPA                DATA
 0002:00000834 00000109H .CRT$XPX                DATA
 0002:00000940 00000104H .CRT$XPXA               DATA
 0002:00000a44 00000104H .CRT$XPZ                DATA
 0002:00000b48 00000104H .CRT$XTA                DATA
 0002:00000c4c 00000104H .CRT$XTZ                DATA
 0002:00000d50 00014bafH .rdata                  DATA
 0002:00015900 00000193H .rdata$debug            DATA
 0002:00015a94 00000502H .rdata$r                DATA
 0002:00015fa0 00000250H .rdata$sxdata           DATA
 0002:000161f0 00000104H .rtc$IAA                DATA
 0002:000162f4 0000011cH .rtc$IMZ                DATA
 0002:00016410 00000104H .rtc$IZZ                DATA
 0002:00016514 00000104H .rtc$TAA                DATA
 0002:00016618 0000011cH .rtc$TMZ                DATA
 0002:00016734 00000104H .rtc$TZZ                DATA
 0002:00016838 0000233eH .xdata$x                DATA
 0002:00018b76 00000000H .edata                  DATA
 0003:00000000 00002f90H .data                   DATA
 0003:00002fa0 000021b4H .bss                    DATA
 0004:00000000 00000078H .idata$2                DATA
 0004:00000078 00000014H .idata$3                DATA
 0004:0000008c 00000364H .idata$4                DATA
 0004:000003f0 00000364H .idata$5                DATA
 0004:00000754 00000b96H .idata$6                DATA
 0005:00000000 00000169H .rsrc$01                DATA
 0005:00000170 000002e9H .rsrc$02                DATA

  Address         Publics by Value              Rva+Base       Lib:Object

 0000:00000000       __except_list              00000000     <absolute>
 0000:00000046       ___safe_se_handler_count   00000046     <absolute>
 0000:00000000       ___ImageBase               00400000     <linker-defined>
 0001:00000ee0       ??0Camera@@QAE@XZ          00401ee0 f   Camera.obj
 0001:00001030       ??1Camera@@QAE@XZ          00402030 f   Camera.obj
 0001:00001050       ?UpdateMove@Camera@@QAEXUMoveInfo@@M@Z 00402050 f   Camera.obj
 0001:00001340       ?UpdateMatrices@Camera@@AAEXXZ 00402340 f   Camera.obj
 0001:00001480       ?SetupRenderParameters@Camera@@QAEXPAUIDirect3DDevice9@@@Z 00402480 f   Camera.obj
 0001:00001750       ??0D3DXVECTOR3@@QAE@XZ     00402750 f i Camera.obj
 0001:00001770       ??0D3DXMATRIX@@QAE@XZ      00402770 f i Camera.obj
 0001:00001790       ??0D3DXVECTOR3@@QAE@MMM@Z  00402790 f i Camera.obj
 0001:000017d0       ??YD3DXVECTOR3@@QAEAAU0@ABU0@@Z 004027d0 f i Camera.obj
 0001:00001830       ??D@YA?AUD3DXVECTOR3@@MABU0@@Z 00402830 f i Camera.obj
 0001:000018c0       ??HD3DXVECTOR3@@QBE?AU0@ABU0@@Z 004028c0 f i Camera.obj
 0001:00001960       ??0D3DXVECTOR2@@QAE@MM@Z   00402960 f i Camera.obj
 0001:000019a0       ??0InputManager@@QAE@PAUHINSTANCE__@@PAUHWND__@@@Z 004029a0 f   InputManager.obj
 0001:00001af0       ??1InputManager@@QAE@XZ    00402af0 f   InputManager.obj
 0001:00001bc0       ?ResetDevice@InputManager@@QAEXXZ 00402bc0 f   InputManager.obj
 0001:00001c80       ?Update@InputManager@@QAEXXZ 00402c80 f   InputManager.obj
 0001:00001cb0       ?HandleKeyboard@InputManager@@AAEXXZ 00402cb0 f   InputManager.obj
 0001:00001dc0       ?HandleMouse@InputManager@@AAEXXZ 00402dc0 f   InputManager.obj
 0001:00001f10       ?AcquireMousePos@InputManager@@AAEXXZ 00402f10 f   InputManager.obj
 0001:00001fc0       ?GetRelativeMousePos@InputManager@@QAEXAAH0@Z 00402fc0 f   InputManager.obj
 0001:00001ff0       ?GetAbsoluteMousePos@InputManager@@QAEXAAH0@Z 00402ff0 f   InputManager.obj
 0001:00002020       ?IsKeyDown@InputManager@@QAE_NH@Z 00403020 f   InputManager.obj
 0001:00002050       ?IsKeyDownOnce@InputManager@@QAE_NH@Z 00403050 f   InputManager.obj
 0001:000020c0       ?IsMouseKeyDown@InputManager@@QAE_NH@Z 004030c0 f   InputManager.obj
 0001:000020f0       ?IsMouseKeyDownOnce@InputManager@@QAE_NH@Z 004030f0 f   InputManager.obj
 0001:00002340       ?create_random_texture@@YAXPAUIDirect3DDevice9@@PAPAUIDirect3DTexture9@@I@Z 00403340 f   intro.obj
 0001:00002420       ?create_random_chambers@@YA?AV?$basic_string@DU?$char_traits@D@std@@V?$allocator@D@2@@std@@H@Z 00403420 f   intro.obj
 0001:00002720       ?intro_init@@YAXPAUIDirect3DDevice9@@@Z 00403720 f   intro.obj
 0001:000028d0       ?intro_handle_input@@YAXPAVInputManager@@M@Z 004038d0 f   intro.obj
 0001:00002ad0       ?intro_do@@YAXPAUIDirect3DDevice9@@M@Z 00403ad0 f   intro.obj
 0001:00002fc0       ?GetPosition@Camera@@QAE?AUD3DXVECTOR3@@XZ 00403fc0 f i intro.obj
 0001:00003000       ??BD3DXVECTOR2@@QAEPAMXZ   00404000 f i intro.obj
 0001:00003020       ?GetPixelShader@Shader@@QAEPAUIDirect3DPixelShader9@@XZ 00404020 f i intro.obj
 0001:00003040       ?GetVertexShader@Shader@@QAEPAUIDirect3DVertexShader9@@XZ 00404040 f i intro.obj
 0001:00003060       ??0?$basic_string@DU?$char_traits@D@std@@V?$allocator@D@2@@std@@QAE@PBD@Z 00404060 f i intro.obj
 0001:00003110       ??0?$basic_string@DU?$char_traits@D@std@@V?$allocator@D@2@@std@@QAE@ABV01@@Z 00404110 f i intro.obj
 0001:000031c0       ??1?$basic_string@DU?$char_traits@D@std@@V?$allocator@D@2@@std@@QAE@XZ 004041c0 f i intro.obj
 0001:00003250       ??Y?$basic_string@DU?$char_traits@D@std@@V?$allocator@D@2@@std@@QAEAAV01@PBD@Z 00404250 f i intro.obj
 0001:00003290       ?c_str@?$basic_string@DU?$char_traits@D@std@@V?$allocator@D@2@@std@@QBEPBDXZ 00404290 f i intro.obj
 0001:000032c0       ?allocate@?$_DebugHeapAllocator@D@std@@QAAPADIPBX@Z 004042c0 f i intro.obj
 0001:00003360       ??0bad_alloc@std@@QAE@PBD@Z 00404360 f i intro.obj
 0001:000033b0       ??1bad_alloc@std@@UAE@XZ   004043b0 f i intro.obj
 0001:000033f0       ??_Gbad_alloc@std@@UAEPAXI@Z 004043f0 f i intro.obj
 0001:000033f0       ??_Ebad_alloc@std@@UAEPAXI@Z 004043f0 f i intro.obj
 0001:00003440       ?allocate@?$_DebugHeapAllocator@D@std@@QAEPADI@Z 00404440 f i intro.obj
 0001:000034e0       ?deallocate@?$_DebugHeapAllocator@D@std@@QAEXPADI@Z 004044e0 f i intro.obj
 0001:00003520       ??1?$_String_val@DV?$allocator@D@std@@@std@@QAE@XZ 00404520 f i intro.obj
 0001:00003550       ??0bad_alloc@std@@QAE@ABV01@@Z 00404550 f i intro.obj
 0001:000035a0       ??0?$_DebugHeapAllocator@D@std@@QAE@XZ 004045a0 f i intro.obj
 0001:000035d0       ??1_String_base@std@@QAE@XZ 004045d0 f i intro.obj
 0001:00003600       ??1_Container_base_secure@std@@QAE@XZ 00404600 f i intro.obj
 0001:00003630       ?_Orphan_all@_Container_base_secure@std@@QBEXXZ 00404630 f i intro.obj
 0001:00003700       ?append@?$basic_string@DU?$char_traits@D@std@@V?$allocator@D@2@@std@@QAEAAV12@PBD@Z 00404700 f i intro.obj
 0001:00003760       ?length@?$char_traits@D@std@@SAIPBD@Z 00404760 f i intro.obj
 0001:00003780       ?assign@?$basic_string@DU?$char_traits@D@std@@V?$allocator@D@2@@std@@QAEAAV12@ABV12@II@Z 00404780 f i intro.obj
 0001:00003890       ?size@?$basic_string@DU?$char_traits@D@std@@V?$allocator@D@2@@std@@QBEIXZ 00404890 f i intro.obj
 0001:000038b0       ?assign@?$basic_string@DU?$char_traits@D@std@@V?$allocator@D@2@@std@@QAEAAV12@PBD@Z 004048b0 f i intro.obj
 0001:00003910       ?_Tidy@?$basic_string@DU?$char_traits@D@std@@V?$allocator@D@2@@std@@IAEX_NI@Z 00404910 f i intro.obj
 0001:000039d0       ?_Myptr@?$basic_string@DU?$char_traits@D@std@@V?$allocator@D@2@@std@@IBEPBDXZ 004049d0 f i intro.obj
 0001:00003a20       ??0?$_String_val@DV?$allocator@D@std@@@std@@IAE@V?$allocator@D@1@@Z 00404a20 f i intro.obj
 0001:00003a70       ??0?$_String_val@DV?$allocator@D@std@@@std@@QAE@ABV01@@Z 00404a70 f i intro.obj
 0001:00003ad0       ??0?$allocator@D@std@@QAE@XZ 00404ad0 f i intro.obj
 0001:00003af0       ??0_String_base@std@@QAE@XZ 00404af0 f i intro.obj
 0001:00003b20       ??0_Container_base_secure@std@@QAE@XZ 00404b20 f i intro.obj
 0001:00003b50       ??0?$_DebugHeapAllocator@D@std@@QAE@ABV01@@Z 00404b50 f i intro.obj
 0001:00003b90       ?append@?$basic_string@DU?$char_traits@D@std@@V?$allocator@D@2@@std@@QAEAAV12@PBDI@Z 00404b90 f i intro.obj
 0001:00003ce0       ?assign@?$basic_string@DU?$char_traits@D@std@@V?$allocator@D@2@@std@@QAEAAV12@PBDI@Z 00404ce0 f i intro.obj
 0001:00003dc0       ?erase@?$basic_string@DU?$char_traits@D@std@@V?$allocator@D@2@@std@@QAEAAV12@II@Z 00404dc0 f i intro.obj
 0001:00003ea0       ?_Eos@?$basic_string@DU?$char_traits@D@std@@V?$allocator@D@2@@std@@IAEXI@Z 00404ea0 f i intro.obj
 0001:00003f00       ?assign@?$char_traits@D@std@@SAXAADABD@Z 00404f00 f i intro.obj
 0001:00003f20       ?_Grow@?$basic_string@DU?$char_traits@D@std@@V?$allocator@D@2@@std@@IAE_NI_N@Z 00404f20 f i intro.obj
 0001:00004000       ?_Myptr@?$basic_string@DU?$char_traits@D@std@@V?$allocator@D@2@@std@@IAEPADXZ 00405000 f i intro.obj
 0001:00004050       ??0?$allocator@D@std@@QAE@ABV01@@Z 00405050 f i intro.obj
 0001:00004070       ?deallocate@?$allocator@D@std@@QAEXPADI@Z 00405070 f i intro.obj
 0001:000040b0       ?append@?$basic_string@DU?$char_traits@D@std@@V?$allocator@D@2@@std@@QAEAAV12@ABV12@II@Z 004050b0 f i intro.obj
 0001:000041d0       ?max_size@?$basic_string@DU?$char_traits@D@std@@V?$allocator@D@2@@std@@QBEIXZ 004051d0 f i intro.obj
 0001:00004240       ?_Copy@?$basic_string@DU?$char_traits@D@std@@V?$allocator@D@2@@std@@IAEXII@Z 00405240 f i intro.obj
 0001:00004450       ?_Inside@?$basic_string@DU?$char_traits@D@std@@V?$allocator@D@2@@std@@IAE_NPBD@Z 00405450 f i intro.obj
 0001:000044b0       ?allocate@?$allocator@D@std@@QAEPADI@Z 004054b0 f i intro.obj
 0001:000044f0       ?max_size@?$allocator@D@std@@QBEIXZ 004054f0 f i intro.obj
 0001:00004550       ??$_Debug_pointer@D@std@@YAXPBDPB_WI@Z 00405550 f i intro.obj
 0001:00004580       ??$_DebugHeapDelete@X@std@@YAXPAX@Z 00405580 f i intro.obj
 0001:000045b0       ??$copy_s@U?$char_traits@D@std@@@_Traits_helper@std@@YAPADPADIPBDI@Z 004055b0 f i intro.obj
 0001:00004600       ??$move_s@U?$char_traits@D@std@@@_Traits_helper@std@@YAPADPADIPBDI@Z 00405600 f i intro.obj
 0001:00004650       ??$_Allocate@D@std@@YAPADIPAD@Z 00405650 f i intro.obj
 0001:000046e0       ??$_Char_traits_cat@U?$char_traits@D@std@@@std@@YA?AU_Secure_char_traits_tag@0@XZ 004056e0 f i intro.obj
 0001:00004750       ??$copy_s@U?$char_traits@D@std@@@_Traits_helper@std@@YAPADPADIPBDIU_Secure_char_traits_tag@1@@Z 00405750 f i intro.obj
 0001:00004780       ?_Copy_s@?$char_traits@D@std@@SAPADPADIPBDI@Z 00405780 f i intro.obj
 0001:000047b0       ??$move_s@U?$char_traits@D@std@@@_Traits_helper@std@@YAPADPADIPBDIU_Secure_char_traits_tag@1@@Z 004057b0 f i intro.obj
 0001:000047e0       ?_Move_s@?$char_traits@D@std@@SAPADPADIPBDI@Z 004057e0 f i intro.obj
 0001:00004810       _WinMain@16                00405810 f   main_deb.obj
 0001:00005310       _floorf                    00406310 f i main_deb.obj
 0001:00005350       ??0Shader@@QAE@XZ          00406350 f   Shader.obj
 0001:00005380       ??1Shader@@QAE@XZ          00406380 f   Shader.obj
 0001:000053f0       ?CompileFromStream@Shader@@QAEXPAUIDirect3DDevice9@@PBD1@Z 004063f0 f   Shader.obj
 0001:00005430       ?CompileFromStream@Shader@@QAEXPAUIDirect3DDevice9@@PAU_D3DXMACRO@@PBD2@Z 00406430 f   Shader.obj
 0001:00005700       ?GenerateWalls@@YAXAAV?$vector@V?$set@HU?$less@H@std@@V?$allocator@H@2@@std@@V?$allocator@V?$set@HU?$less@H@std@@V?$allocator@H@2@@std@@@2@@std@@AAV?$vector@Uwall@@V?$allocator@Uwall@@@std@@@2@HH@Z 00406700 f   Maze.obj
 0001:00005890       ?RemoveWall@@YAXPAHUwall@@HH@Z 00406890 f   Maze.obj
 0001:00005950       ?CreateMaze@@YAPAHHH@Z     00406950 f   Maze.obj
 0001:000060a0       ??1?$set@HU?$less@H@std@@V?$allocator@H@2@@std@@QAE@XZ 004070a0 f i Maze.obj
 0001:000060d0       ??1?$pair@Viterator@?$_Tree@V?$_Tset_traits@HU?$less@H@std@@V?$allocator@H@2@$0A@@std@@@std@@_N@std@@QAE@XZ 004070d0 f i Maze.obj
 0001:00006100       ??1iterator@?$_Tree@V?$_Tset_traits@HU?$less@H@std@@V?$allocator@H@2@$0A@@std@@@std@@QAE@XZ 00407100 f i Maze.obj
 0001:00006130       ??1const_iterator@?$_Tree@V?$_Tset_traits@HU?$less@H@std@@V?$allocator@H@2@$0A@@std@@@std@@QAE@XZ 00407130 f i Maze.obj
 0001:00006160       ??1?$_Bidit@HHPBHABH@std@@QAE@XZ 00407160 f i Maze.obj
 0001:00006190       ??1?$_Iterator_with_base@Ubidirectional_iterator_tag@std@@HHPBHABHV_Iterator_base@2@@std@@QAE@XZ 00407190 f i Maze.obj
 0001:000061c0       ??1_Iterator_base@std@@QAE@XZ 004071c0 f i Maze.obj
 0001:00006290       ?_Orphan_me@_Iterator_base@std@@QAEXXZ 00407290 f i Maze.obj
 0001:00006350       ??1?$_Vector_iterator@V?$set@HU?$less@H@std@@V?$allocator@H@2@@std@@V?$allocator@V?$set@HU?$less@H@std@@V?$allocator@H@2@@std@@@2@@std@@QAE@XZ 00407350 f i Maze.obj
 0001:00006380       ??0?$_Vector_const_iterator@V?$set@HU?$less@H@std@@V?$allocator@H@2@@std@@V?$allocator@V?$set@HU?$less@H@std@@V?$allocator@H@2@@std@@@2@@std@@QAE@ABV01@@Z 00407380 f i Maze.obj
 0001:000063d0       ??1?$_Vector_const_iterator@V?$set@HU?$less@H@std@@V?$allocator@H@2@@std@@V?$allocator@V?$set@HU?$less@H@std@@V?$allocator@H@2@@std@@@2@@std@@QAE@XZ 004073d0 f i Maze.obj
 0001:00006400       ??0?$_Ranit@V?$set@HU?$less@H@std@@V?$allocator@H@2@@std@@HPBV12@ABV12@@std@@QAE@ABU01@@Z 00407400 f i Maze.obj
 0001:00006440       ??1?$_Ranit@V?$set@HU?$less@H@std@@V?$allocator@H@2@@std@@HPBV12@ABV12@@std@@QAE@XZ 00407440 f i Maze.obj
 0001:00006470       ??0?$_Iterator_with_base@Urandom_access_iterator_tag@std@@V?$set@HU?$less@H@std@@V?$allocator@H@2@@2@HPBV32@ABV32@V_Iterator_base@2@@std@@QAE@ABU01@@Z 00407470 f i Maze.obj
 0001:000064b0       ??0_Iterator_base@std@@QAE@ABV01@@Z 004074b0 f i Maze.obj
 0001:00006500       ??4_Iterator_base@std@@QAEAAV01@ABV01@@Z 00407500 f i Maze.obj
 0001:00006600       ?_Adopt@_Iterator_base@std@@QAEXPBV_Container_base_secure@2@@Z 00407600 f i Maze.obj
 0001:00006710       ??1?$_Iterator_with_base@Urandom_access_iterator_tag@std@@V?$set@HU?$less@H@std@@V?$allocator@H@2@@2@HPBV32@ABV32@V_Iterator_base@2@@std@@QAE@XZ 00407710 f i Maze.obj
 0001:00006740       ??0?$set@HU?$less@H@std@@V?$allocator@H@2@@std@@QAE@XZ 00407740 f i Maze.obj
 0001:00006790       ??1?$_Tree@V?$_Tset_traits@HU?$less@H@std@@V?$allocator@H@2@$0A@@std@@@std@@QAE@XZ 00407790 f i Maze.obj
 0001:00006810       ?begin@?$_Tree@V?$_Tset_traits@HU?$less@H@std@@V?$allocator@H@2@$0A@@std@@@std@@QAE?AViterator@12@XZ 00407810 f i Maze.obj
 0001:00006880       ?end@?$_Tree@V?$_Tset_traits@HU?$less@H@std@@V?$allocator@H@2@$0A@@std@@@std@@QAE?AViterator@12@XZ 00407880 f i Maze.obj
 0001:000068e0       ?insert@?$_Tree@V?$_Tset_traits@HU?$less@H@std@@V?$allocator@H@2@$0A@@std@@@std@@QAE?AU?$pair@Viterator@?$_Tree@V?$_Tset_traits@HU?$less@H@std@@V?$allocator@H@2@$0A@@std@@@std@@_N@2@ABH@Z 004078e0 f i Maze.obj
 0001:00006d20       ?find@?$_Tree@V?$_Tset_traits@HU?$less@H@std@@V?$allocator@H@2@$0A@@std@@@std@@QAE?AViterator@12@ABH@Z 00407d20 f i Maze.obj
 0001:00006f30       ??9const_iterator@?$_Tree@V?$_Tset_traits@HU?$less@H@std@@V?$allocator@H@2@$0A@@std@@@std@@QBE_NABV012@@Z 00407f30 f i Maze.obj
 0001:00006f80       ??0?$vector@V?$set@HU?$less@H@std@@V?$allocator@H@2@@std@@V?$allocator@V?$set@HU?$less@H@std@@V?$allocator@H@2@@std@@@2@@std@@QAE@XZ 00407f80 f i Maze.obj
 0001:00007020       ??1?$vector@V?$set@HU?$less@H@std@@V?$allocator@H@2@@std@@V?$allocator@V?$set@HU?$less@H@std@@V?$allocator@H@2@@std@@@2@@std@@QAE@XZ 00408020 f i Maze.obj
 0001:000070a0       ?begin@?$vector@V?$set@HU?$less@H@std@@V?$allocator@H@2@@std@@V?$allocator@V?$set@HU?$less@H@std@@V?$allocator@H@2@@std@@@2@@std@@QAE?AV?$_Vector_iterator@V?$set@HU?$less@H@std@@V?$allocator@H@2@@std@@V?$allocator@V?$set@HU?$less@H@std@@V?$allocator@H@2@@std@@@2@@2@XZ 004080a0 f i Maze.obj
 0001:00007100       ?size@?$vector@V?$set@HU?$less@H@std@@V?$allocator@H@2@@std@@V?$allocator@V?$set@HU?$less@H@std@@V?$allocator@H@2@@std@@@2@@std@@QBEIXZ 00408100 f i Maze.obj
 0001:00007130       ??A?$vector@V?$set@HU?$less@H@std@@V?$allocator@H@2@@std@@V?$allocator@V?$set@HU?$less@H@std@@V?$allocator@H@2@@std@@@2@@std@@QAEAAV?$set@HU?$less@H@std@@V?$allocator@H@2@@1@I@Z 00408130 f i Maze.obj
 0001:00007250       ?push_back@?$vector@V?$set@HU?$less@H@std@@V?$allocator@H@2@@std@@V?$allocator@V?$set@HU?$less@H@std@@V?$allocator@H@2@@std@@@2@@std@@QAEXABV?$set@HU?$less@H@std@@V?$allocator@H@2@@2@@Z 00408250 f i Maze.obj
 0001:00007390       ?erase@?$vector@V?$set@HU?$less@H@std@@V?$allocator@H@2@@std@@V?$allocator@V?$set@HU?$less@H@std@@V?$allocator@H@2@@std@@@2@@std@@QAE?AV?$_Vector_iterator@V?$set@HU?$less@H@std@@V?$allocator@H@2@@std@@V?$allocator@V?$set@HU?$less@H@std@@V?$allocator@H@2@@std@@@2@@2@V?$_Vector_const_iterator@V?$set@HU?$less@H@std@@V?$allocator@H@2@@std@@V?$allocator@V?$set@HU?$less@H@std@@V?$allocator@H@2@@std@@@2@@2@@Z 00408390 f i Maze.obj
 0001:000074f0       ??0?$vector@Uwall@@V?$allocator@Uwall@@@std@@@std@@QAE@XZ 004084f0 f i Maze.obj
 0001:00007590       ??1?$vector@Uwall@@V?$allocator@Uwall@@@std@@@std@@QAE@XZ 00408590 f i Maze.obj
 0001:00007610       ?size@?$vector@Uwall@@V?$allocator@Uwall@@@std@@@std@@QBEIXZ 00408610 f i Maze.obj
 0001:00007640       ??A?$vector@Uwall@@V?$allocator@Uwall@@@std@@@std@@QAEAAUwall@@I@Z 00408640 f i Maze.obj
 0001:00007760       ?push_back@?$vector@Uwall@@V?$allocator@Uwall@@@std@@@std@@QAEXABUwall@@@Z 00408760 f i Maze.obj
 0001:000078a0       ??H?$_Vector_iterator@V?$set@HU?$less@H@std@@V?$allocator@H@2@@std@@V?$allocator@V?$set@HU?$less@H@std@@V?$allocator@H@2@@std@@@2@@std@@QBE?AV01@H@Z 004088a0 f i Maze.obj
 0001:000079b0       ??1?$_Tree_val@V?$_Tset_traits@HU?$less@H@std@@V?$allocator@H@2@$0A@@std@@@std@@QAE@XZ 004089b0 f i Maze.obj
 0001:000079e0       ??0iterator@?$_Tree@V?$_Tset_traits@HU?$less@H@std@@V?$allocator@H@2@$0A@@std@@@std@@QAE@ABV012@@Z 004089e0 f i Maze.obj
 0001:00007a20       ??1?$_Vector_val@V?$set@HU?$less@H@std@@V?$allocator@H@2@@std@@V?$allocator@V?$set@HU?$less@H@std@@V?$allocator@H@2@@std@@@2@@std@@QAE@XZ 00408a20 f i Maze.obj
 0001:00007a50       ??1?$_Vector_val@Uwall@@V?$allocator@Uwall@@@std@@@std@@QAE@XZ 00408a50 f i Maze.obj
 0001:00007a80       ??1?$_Vector_iterator@Uwall@@V?$allocator@Uwall@@@std@@@std@@QAE@XZ 00408a80 f i Maze.obj
 0001:00007ab0       ??0?$_Vector_const_iterator@Uwall@@V?$allocator@Uwall@@@std@@@std@@QAE@ABV01@@Z 00408ab0 f i Maze.obj
 0001:00007b00       ??1?$_Vector_const_iterator@Uwall@@V?$allocator@Uwall@@@std@@@std@@QAE@XZ 00408b00 f i Maze.obj
 0001:00007b30       ??0?$_Vector_iterator@V?$set@HU?$less@H@std@@V?$allocator@H@2@@std@@V?$allocator@V?$set@HU?$less@H@std@@V?$allocator@H@2@@std@@@2@@std@@QAE@ABV01@@Z 00408b30 f i Maze.obj
 0001:00007b70       ??1?$_Tree_ptr@V?$_Tset_traits@HU?$less@H@std@@V?$allocator@H@2@$0A@@std@@@std@@QAE@XZ 00408b70 f i Maze.obj
 0001:00007ba0       ??0const_iterator@?$_Tree@V?$_Tset_traits@HU?$less@H@std@@V?$allocator@H@2@$0A@@std@@@std@@QAE@ABV012@@Z 00408ba0 f i Maze.obj
 0001:00007bf0       ??0?$_Ranit@Uwall@@HPBU1@ABU1@@std@@QAE@ABU01@@Z 00408bf0 f i Maze.obj
 0001:00007c30       ??1?$_Ranit@Uwall@@HPBU1@ABU1@@std@@QAE@XZ 00408c30 f i Maze.obj
 0001:00007c60       ??1?$_Tree_nod@V?$_Tset_traits@HU?$less@H@std@@V?$allocator@H@2@$0A@@std@@@std@@QAE@XZ 00408c60 f i Maze.obj
 0001:00007c90       ??0?$_Bidit@HHPBHABH@std@@QAE@ABU01@@Z 00408c90 f i Maze.obj
 0001:00007cd0       ??0?$_Iterator_with_base@Urandom_access_iterator_tag@std@@Uwall@@HPBU3@ABU3@V_Iterator_base@2@@std@@QAE@ABU01@@Z 00408cd0 f i Maze.obj
 0001:00007d10       ??1?$_Iterator_with_base@Urandom_access_iterator_tag@std@@Uwall@@HPBU3@ABU3@V_Iterator_base@2@@std@@QAE@XZ 00408d10 f i Maze.obj
 0001:00007d40       ??1?$_Tset_traits@HU?$less@H@std@@V?$allocator@H@2@$0A@@std@@QAE@XZ 00408d40 f i Maze.obj
 0001:00007d70       ??0?$_Iterator_with_base@Ubidirectional_iterator_tag@std@@HHPBHABHV_Iterator_base@2@@std@@QAE@ABU01@@Z 00408d70 f i Maze.obj
 0001:00007db0       ?_Isnil@?$_Tree@V?$_Tset_traits@HU?$less@H@std@@V?$allocator@H@2@$0A@@std@@@std@@KAAADPAU_Node@?$_Tree_nod@V?$_Tset_traits@HU?$less@H@std@@V?$allocator@H@2@$0A@@std@@@2@@Z 00408db0 f i Maze.obj
 0001:00007dc0       ?_Key@?$_Tree@V?$_Tset_traits@HU?$less@H@std@@V?$allocator@H@2@$0A@@std@@@std@@KAABHPAU_Node@?$_Tree_nod@V?$_Tset_traits@HU?$less@H@std@@V?$allocator@H@2@$0A@@std@@@2@@Z 00408dc0 f i Maze.obj
 0001:00007df0       ?_Left@?$_Tree@V?$_Tset_traits@HU?$less@H@std@@V?$allocator@H@2@$0A@@std@@@std@@KAAAPAU_Node@?$_Tree_nod@V?$_Tset_traits@HU?$less@H@std@@V?$allocator@H@2@$0A@@std@@@2@PAU342@@Z 00408df0 f i Maze.obj
 0001:00007e00       ?_Right@?$_Tree@V?$_Tset_traits@HU?$less@H@std@@V?$allocator@H@2@$0A@@std@@@std@@KAAAPAU_Node@?$_Tree_nod@V?$_Tset_traits@HU?$less@H@std@@V?$allocator@H@2@$0A@@std@@@2@PAU342@@Z 00408e00 f i Maze.obj
 0001:00007e10       ??0?$_Tree@V?$_Tset_traits@HU?$less@H@std@@V?$allocator@H@2@$0A@@std@@@std@@QAE@ABU?$less@H@1@ABV?$allocator@H@1@@Z 00408e10 f i Maze.obj
 0001:00007ec0       ?lower_bound@?$_Tree@V?$_Tset_traits@HU?$less@H@std@@V?$allocator@H@2@$0A@@std@@@std@@QAE?AViterator@12@ABH@Z 00408ec0 f i Maze.obj
 0001:00007f30       ?_Insert@?$_Tree@V?$_Tset_traits@HU?$less@H@std@@V?$allocator@H@2@$0A@@std@@@std@@IAE?AViterator@12@_NPAU_Node@?$_Tree_nod@V?$_Tset_traits@HU?$less@H@std@@V?$allocator@H@2@$0A@@std@@@2@ABH@Z 00408f30 f i Maze.obj
 0001:00008500       ??0length_error@std@@QAE@ABV?$basic_string@DU?$char_traits@D@std@@V?$allocator@D@2@@1@@Z 00409500 f i Maze.obj
 0001:00008550       ??0logic_error@std@@QAE@ABV?$basic_string@DU?$char_traits@D@std@@V?$allocator@D@2@@1@@Z 00409550 f i Maze.obj
 0001:000085f0       ?what@logic_error@std@@UBEPBDXZ 004095f0 f i Maze.obj
 0001:00008620       ??_Glogic_error@std@@UAEPAXI@Z 00409620 f i Maze.obj
 0001:00008620       ??_Elogic_error@std@@UAEPAXI@Z 00409620 f i Maze.obj
 0001:00008670       ??1logic_error@std@@UAE@XZ 00409670 f i Maze.obj
 0001:000086c0       ??1length_error@std@@UAE@XZ 004096c0 f i Maze.obj
 0001:00008700       ??_Glength_error@std@@UAEPAXI@Z 00409700 f i Maze.obj
 0001:00008700       ??_Elength_error@std@@UAEPAXI@Z 00409700 f i Maze.obj
 0001:00008750       ?_Lmost@?$_Tree@V?$_Tset_traits@HU?$less@H@std@@V?$allocator@H@2@$0A@@std@@@std@@IBEAAPAU_Node@?$_Tree_nod@V?$_Tset_traits@HU?$less@H@std@@V?$allocator@H@2@$0A@@std@@@2@XZ 00409750 f i Maze.obj
 0001:00008790       ?_Root@?$_Tree@V?$_Tset_traits@HU?$less@H@std@@V?$allocator@H@2@$0A@@std@@@std@@IBEAAPAU_Node@?$_Tree_nod@V?$_Tset_traits@HU?$less@H@std@@V?$allocator@H@2@$0A@@std@@@2@XZ 00409790 f i Maze.obj
 0001:000087d0       ?_Tidy@?$_Tree@V?$_Tset_traits@HU?$less@H@std@@V?$allocator@H@2@$0A@@std@@@std@@IAEXXZ 004097d0 f i Maze.obj
 0001:000089a0       ?_Kfn@?$_Tset_traits@HU?$less@H@std@@V?$allocator@H@2@$0A@@std@@SAABHABH@Z 004099a0 f i Maze.obj
 0001:000089b0       ??1?$_Container_base_aux_alloc_empty@V?$allocator@H@std@@@std@@IAE@XZ 004099b0 f i Maze.obj
 0001:000089e0       ??0?$allocator@H@std@@QAE@XZ 004099e0 f i Maze.obj
 0001:00008a00       ??0?$pair@Viterator@?$_Tree@V?$_Tset_traits@HU?$less@H@std@@V?$allocator@H@2@$0A@@std@@@std@@_N@std@@QAE@ABViterator@?$_Tree@V?$_Tset_traits@HU?$less@H@std@@V?$allocator@H@2@$0A@@std@@@1@AB_N@Z 00409a00 f i Maze.obj
 0001:00008a50       ??0iterator@?$_Tree@V?$_Tset_traits@HU?$less@H@std@@V?$allocator@H@2@$0A@@std@@@std@@QAE@PAU_Node@?$_Tree_nod@V?$_Tset_traits@HU?$less@H@std@@V?$allocator@H@2@$0A@@std@@@2@PBV12@@Z 00409a50 f i Maze.obj
 0001:00008a90       ??Fiterator@?$_Tree@V?$_Tset_traits@HU?$less@H@std@@V?$allocator@H@2@$0A@@std@@@std@@QAEAAV012@XZ 00409a90 f i Maze.obj
 0001:00008ac0       ??8const_iterator@?$_Tree@V?$_Tset_traits@HU?$less@H@std@@V?$allocator@H@2@$0A@@std@@@std@@QBE_NABV012@@Z 00409ac0 f i Maze.obj
 0001:00008b90       ?_Mynode@const_iterator@?$_Tree@V?$_Tset_traits@HU?$less@H@std@@V?$allocator@H@2@$0A@@std@@@std@@QBEPAU_Node@?$_Tree_nod@V?$_Tset_traits@HU?$less@H@std@@V?$allocator@H@2@$0A@@std@@@3@XZ 00409b90 f i Maze.obj
 0001:00008bb0       ?capacity@?$vector@V?$set@HU?$less@H@std@@V?$allocator@H@2@@std@@V?$allocator@V?$set@HU?$less@H@std@@V?$allocator@H@2@@std@@@2@@std@@QBEIXZ 00409bb0 f i Maze.obj
 0001:00008c10       ?end@?$vector@V?$set@HU?$less@H@std@@V?$allocator@H@2@@std@@V?$allocator@V?$set@HU?$less@H@std@@V?$allocator@H@2@@std@@@2@@std@@QAE?AV?$_Vector_iterator@V?$set@HU?$less@H@std@@V?$allocator@H@2@@std@@V?$allocator@V?$set@HU?$less@H@std@@V?$allocator@H@2@@std@@@2@@2@XZ 00409c10 f i Maze.obj
 0001:00008c70       ?insert@?$vector@V?$set@HU?$less@H@std@@V?$allocator@H@2@@std@@V?$allocator@V?$set@HU?$less@H@std@@V?$allocator@H@2@@std@@@2@@std@@QAE?AV?$_Vector_iterator@V?$set@HU?$less@H@std@@V?$allocator@H@2@@std@@V?$allocator@V?$set@HU?$less@H@std@@V?$allocator@H@2@@std@@@2@@2@V?$_Vector_const_iterator@V?$set@HU?$less@H@std@@V?$allocator@H@2@@std@@V?$allocator@V?$set@HU?$less@H@std@@V?$allocator@H@2@@std@@@2@@2@ABV?$set@HU?$less@H@std@@V?$allocator@H@2@@2@@Z 00409c70 f i Maze.obj
 0001:00008e00       ?_Buy@?$vector@V?$set@HU?$less@H@std@@V?$allocator@H@2@@std@@V?$allocator@V?$set@HU?$less@H@std@@V?$allocator@H@2@@std@@@2@@std@@IAE_NI@Z 00409e00 f i Maze.obj
 0001:00008ec0       ?_Destroy@?$vector@V?$set@HU?$less@H@std@@V?$allocator@H@2@@std@@V?$allocator@V?$set@HU?$less@H@std@@V?$allocator@H@2@@std@@@2@@std@@IAEXPAV?$set@HU?$less@H@std@@V?$allocator@H@2@@2@0@Z 00409ec0 f i Maze.obj
 0001:00008f10       ?_Tidy@?$vector@V?$set@HU?$less@H@std@@V?$allocator@H@2@@std@@V?$allocator@V?$set@HU?$less@H@std@@V?$allocator@H@2@@std@@@2@@std@@IAEXXZ 00409f10 f i Maze.obj
 0001:00008fc0       ?_Ufill@?$vector@V?$set@HU?$less@H@std@@V?$allocator@H@2@@std@@V?$allocator@V?$set@HU?$less@H@std@@V?$allocator@H@2@@std@@@2@@std@@IAEPAV?$set@HU?$less@H@std@@V?$allocator@H@2@@2@PAV32@IABV32@@Z 00409fc0 f i Maze.obj
 0001:00009020       ?_Orphan_range@?$vector@V?$set@HU?$less@H@std@@V?$allocator@H@2@@std@@V?$allocator@V?$set@HU?$less@H@std@@V?$allocator@H@2@@std@@@2@@std@@IBEXPAV?$set@HU?$less@H@std@@V?$allocator@H@2@@2@0@Z 0040a020 f i Maze.obj
 0001:00009110       ??0?$_Vector_val@V?$set@HU?$less@H@std@@V?$allocator@H@2@@std@@V?$allocator@V?$set@HU?$less@H@std@@V?$allocator@H@2@@std@@@2@@std@@IAE@V?$allocator@V?$set@HU?$less@H@std@@V?$allocator@H@2@@std@@@1@@Z 0040a110 f i Maze.obj
 0001:00009180       ??1?$_Container_base_aux_alloc_empty@V?$allocator@V?$set@HU?$less@H@std@@V?$allocator@H@2@@std@@@std@@@std@@IAE@XZ 0040a180 f i Maze.obj
 0001:000091b0       ??0?$allocator@V?$set@HU?$less@H@std@@V?$allocator@H@2@@std@@@std@@QAE@XZ 0040a1b0 f i Maze.obj
 0001:000091d0       ?capacity@?$vector@Uwall@@V?$allocator@Uwall@@@std@@@std@@QBEIXZ 0040a1d0 f i Maze.obj
 0001:00009230       ?end@?$vector@Uwall@@V?$allocator@Uwall@@@std@@@std@@QAE?AV?$_Vector_iterator@Uwall@@V?$allocator@Uwall@@@std@@@2@XZ 0040a230 f i Maze.obj
 0001:00009290       ?insert@?$vector@Uwall@@V?$allocator@Uwall@@@std@@@std@@QAE?AV?$_Vector_iterator@Uwall@@V?$allocator@Uwall@@@std@@@2@V?$_Vector_const_iterator@Uwall@@V?$allocator@Uwall@@@std@@@2@ABUwall@@@Z 0040a290 f i Maze.obj
 0001:00009420       ?_Buy@?$vector@Uwall@@V?$allocator@Uwall@@@std@@@std@@IAE_NI@Z 0040a420 f i Maze.obj
 0001:000094e0       ?_Tidy@?$vector@Uwall@@V?$allocator@Uwall@@@std@@@std@@IAEXXZ 0040a4e0 f i Maze.obj
 0001:00009590       ?_Ufill@?$vector@Uwall@@V?$allocator@Uwall@@@std@@@std@@IAEPAUwall@@PAU3@IABU3@@Z 0040a590 f i Maze.obj
 0001:000095f0       ?_Orphan_range@?$vector@Uwall@@V?$allocator@Uwall@@@std@@@std@@IBEXPAUwall@@0@Z 0040a5f0 f i Maze.obj
 0001:000096e0       ??0?$_Vector_val@Uwall@@V?$allocator@Uwall@@@std@@@std@@IAE@V?$allocator@Uwall@@@1@@Z 0040a6e0 f i Maze.obj
 0001:00009750       ??1?$_Container_base_aux_alloc_empty@V?$allocator@Uwall@@@std@@@std@@IAE@XZ 0040a750 f i Maze.obj
 0001:00009780       ??0?$allocator@Uwall@@@std@@QAE@XZ 0040a780 f i Maze.obj
 0001:000097a0       ??0?$_Vector_iterator@V?$set@HU?$less@H@std@@V?$allocator@H@2@@std@@V?$allocator@V?$set@HU?$less@H@std@@V?$allocator@H@2@@std@@@2@@std@@QAE@PAV?$set@HU?$less@H@std@@V?$allocator@H@2@@1@PBV_Container_base_secure@1@@Z 0040a7a0 f i Maze.obj
 0001:000097e0       ??Y?$_Vector_iterator@V?$set@HU?$less@H@std@@V?$allocator@H@2@@std@@V?$allocator@V?$set@HU?$less@H@std@@V?$allocator@H@2@@std@@@2@@std@@QAEAAV01@H@Z 0040a7e0 f i Maze.obj
 0001:00009820       ??0length_error@std@@QAE@ABV01@@Z 0040a820 f i Maze.obj
 0001:00009870       ??0logic_error@std@@QAE@ABV01@@Z 0040a870 f i Maze.obj
 0001:00009910       ?_Color@?$_Tree@V?$_Tset_traits@HU?$less@H@std@@V?$allocator@H@2@$0A@@std@@@std@@KAAADPAU_Node@?$_Tree_nod@V?$_Tset_traits@HU?$less@H@std@@V?$allocator@H@2@$0A@@std@@@2@@Z 0040a910 f i Maze.obj
 0001:00009920       ?_Parent@?$_Tree@V?$_Tset_traits@HU?$less@H@std@@V?$allocator@H@2@$0A@@std@@@std@@KAAAPAU_Node@?$_Tree_nod@V?$_Tset_traits@HU?$less@H@std@@V?$allocator@H@2@$0A@@std@@@2@PAU342@@Z 0040a920 f i Maze.obj
 0001:00009930       ?_Myval@?$_Tree@V?$_Tset_traits@HU?$less@H@std@@V?$allocator@H@2@$0A@@std@@@std@@KAAAHPAU_Node@?$_Tree_nod@V?$_Tset_traits@HU?$less@H@std@@V?$allocator@H@2@$0A@@std@@@2@@Z 0040a930 f i Maze.obj
 0001:00009940       ?max_size@?$_Tree@V?$_Tset_traits@HU?$less@H@std@@V?$allocator@H@2@$0A@@std@@@std@@QBEIXZ 0040a940 f i Maze.obj
 0001:00009970       ?erase@?$_Tree@V?$_Tset_traits@HU?$less@H@std@@V?$allocator@H@2@$0A@@std@@@std@@QAE?AViterator@12@Vconst_iterator@12@0@Z 0040a970 f i Maze.obj
 0001:00009c00       ?_Init@?$_Tree@V?$_Tset_traits@HU?$less@H@std@@V?$allocator@H@2@$0A@@std@@@std@@IAEXXZ 0040ac00 f i Maze.obj
 0001:00009ca0       ?_Lbound@?$_Tree@V?$_Tset_traits@HU?$less@H@std@@V?$allocator@H@2@$0A@@std@@@std@@IBEPAU_Node@?$_Tree_nod@V?$_Tset_traits@HU?$less@H@std@@V?$allocator@H@2@$0A@@std@@@2@ABH@Z 0040aca0 f i Maze.obj
 0001:00009d90       ?_Lrotate@?$_Tree@V?$_Tset_traits@HU?$less@H@std@@V?$allocator@H@2@$0A@@std@@@std@@IAEXPAU_Node@?$_Tree_nod@V?$_Tset_traits@HU?$less@H@std@@V?$allocator@H@2@$0A@@std@@@2@@Z 0040ad90 f i Maze.obj
 0001:00009f30       ?_Rmost@?$_Tree@V?$_Tset_traits@HU?$less@H@std@@V?$allocator@H@2@$0A@@std@@@std@@IBEAAPAU_Node@?$_Tree_nod@V?$_Tset_traits@HU?$less@H@std@@V?$allocator@H@2@$0A@@std@@@2@XZ 0040af30 f i Maze.obj
 0001:00009f70       ?_Rrotate@?$_Tree@V?$_Tset_traits@HU?$less@H@std@@V?$allocator@H@2@$0A@@std@@@std@@IAEXPAU_Node@?$_Tree_nod@V?$_Tset_traits@HU?$less@H@std@@V?$allocator@H@2@$0A@@std@@@2@@Z 0040af70 f i Maze.obj
 0001:0000a110       ?_Buynode@?$_Tree@V?$_Tset_traits@HU?$less@H@std@@V?$allocator@H@2@$0A@@std@@@std@@IAEPAU_Node@?$_Tree_nod@V?$_Tset_traits@HU?$less@H@std@@V?$allocator@H@2@$0A@@std@@@2@PAU342@00ABHD@Z 0040b110 f i Maze.obj
 0001:0000a260       ??2@YAPAXIPAX@Z            0040b260 f i Maze.obj
 0001:0000a270       ??3@YAXPAX0@Z              0040b270 f i Maze.obj
 0001:0000a280       ??0?$_Tree_val@V?$_Tset_traits@HU?$less@H@std@@V?$allocator@H@2@$0A@@std@@@std@@IAE@ABU?$less@H@1@V?$allocator@H@1@@Z 0040b280 f i Maze.obj
 0001:0000a2f0       ??0?$allocator@H@std@@QAE@ABV01@@Z 0040b2f0 f i Maze.obj
 0001:0000a310       ?deallocate@?$allocator@U_Node@?$_Tree_nod@V?$_Tset_traits@HU?$less@H@std@@V?$allocator@H@2@$0A@@std@@@std@@@std@@QAEXPAU_Node@?$_Tree_nod@V?$_Tset_traits@HU?$less@H@std@@V?$allocator@H@2@$0A@@std@@@2@I@Z 0040b310 f i Maze.obj
 0001:0000a350       ?destroy@?$allocator@PAU_Node@?$_Tree_nod@V?$_Tset_traits@HU?$less@H@std@@V?$allocator@H@2@$0A@@std@@@std@@@std@@QAEXPAPAU_Node@?$_Tree_nod@V?$_Tset_traits@HU?$less@H@std@@V?$allocator@H@2@$0A@@std@@@2@@Z 0040b350 f i Maze.obj
 0001:0000a390       ??0const_iterator@?$_Tree@V?$_Tset_traits@HU?$less@H@std@@V?$allocator@H@2@$0A@@std@@@std@@QAE@PAU_Node@?$_Tree_nod@V?$_Tset_traits@HU?$less@H@std@@V?$allocator@H@2@$0A@@std@@@2@PBV12@@Z 0040b390 f i Maze.obj
 0001:0000a430       ??Fconst_iterator@?$_Tree@V?$_Tset_traits@HU?$less@H@std@@V?$allocator@H@2@$0A@@std@@@std@@QAEAAV012@XZ 0040b430 f i Maze.obj
 0001:0000a460       ?max_size@?$vector@V?$set@HU?$less@H@std@@V?$allocator@H@2@@std@@V?$allocator@V?$set@HU?$less@H@std@@V?$allocator@H@2@@std@@@2@@std@@QBEIXZ 0040b460 f i Maze.obj
 0001:0000a490       ?_Insert_n@?$vector@V?$set@HU?$less@H@std@@V?$allocator@H@2@@std@@V?$allocator@V?$set@HU?$less@H@std@@V?$allocator@H@2@@std@@@2@@std@@IAEXV?$_Vector_const_iterator@V?$set@HU?$less@H@std@@V?$allocator@H@2@@std@@V?$allocator@V?$set@HU?$less@H@std@@V?$allocator@H@2@@std@@@2@@2@IABV?$set@HU?$less@H@std@@V?$allocator@H@2@@2@@Z 0040b490 f i Maze.obj
 0001:0000aa70       ?_Xlen@?$vector@V?$set@HU?$less@H@std@@V?$allocator@H@2@@std@@V?$allocator@V?$set@HU?$less@H@std@@V?$allocator@H@2@@std@@@2@@std@@KAXXZ 0040ba70 f i Maze.obj
 0001:0000ab20       ??0?$_Container_base_aux_alloc_empty@V?$allocator@V?$set@HU?$less@H@std@@V?$allocator@H@2@@std@@@std@@@std@@IAE@V?$allocator@V?$set@HU?$less@H@std@@V?$allocator@H@2@@std@@@1@@Z 0040bb20 f i Maze.obj
 0001:0000ab60       ??0?$allocator@V?$set@HU?$less@H@std@@V?$allocator@H@2@@std@@@std@@QAE@ABV01@@Z 0040bb60 f i Maze.obj
 0001:0000ab80       ?deallocate@?$allocator@V?$set@HU?$less@H@std@@V?$allocator@H@2@@std@@@std@@QAEXPAV?$set@HU?$less@H@std@@V?$allocator@H@2@@2@I@Z 0040bb80 f i Maze.obj
 0001:0000abc0       ?allocate@?$allocator@V?$set@HU?$less@H@std@@V?$allocator@H@2@@std@@@std@@QAEPAV?$set@HU?$less@H@std@@V?$allocator@H@2@@2@I@Z 0040bbc0 f i Maze.obj
 0001:0000ac00       ?begin@?$vector@Uwall@@V?$allocator@Uwall@@@std@@@std@@QAE?AV?$_Vector_iterator@Uwall@@V?$allocator@Uwall@@@std@@@2@XZ 0040bc00 f i Maze.obj
 0001:0000ac60       ?max_size@?$vector@Uwall@@V?$allocator@Uwall@@@std@@@std@@QBEIXZ 0040bc60 f i Maze.obj
 0001:0000ac90       ?_Destroy@?$vector@Uwall@@V?$allocator@Uwall@@@std@@@std@@IAEXPAUwall@@0@Z 0040bc90 f i Maze.obj
 0001:0000ace0       ?_Insert_n@?$vector@Uwall@@V?$allocator@Uwall@@@std@@@std@@IAEXV?$_Vector_const_iterator@Uwall@@V?$allocator@Uwall@@@std@@@2@IABUwall@@@Z 0040bce0 f i Maze.obj
 0001:0000b280       ?_Xlen@?$vector@Uwall@@V?$allocator@Uwall@@@std@@@std@@KAXXZ 0040c280 f i Maze.obj
 0001:0000b330       ??0?$_Container_base_aux_alloc_empty@V?$allocator@Uwall@@@std@@@std@@IAE@V?$allocator@Uwall@@@1@@Z 0040c330 f i Maze.obj
 0001:0000b370       ??0?$allocator@Uwall@@@std@@QAE@ABV01@@Z 0040c370 f i Maze.obj
 0001:0000b390       ?deallocate@?$allocator@Uwall@@@std@@QAEXPAUwall@@I@Z 0040c390 f i Maze.obj
 0001:0000b3d0       ?allocate@?$allocator@Uwall@@@std@@QAEPAUwall@@I@Z 0040c3d0 f i Maze.obj
 0001:0000b410       ??0?$_Vector_const_iterator@V?$set@HU?$less@H@std@@V?$allocator@H@2@@std@@V?$allocator@V?$set@HU?$less@H@std@@V?$allocator@H@2@@std@@@2@@std@@QAE@PAV?$set@HU?$less@H@std@@V?$allocator@H@2@@1@PBV_Container_base_secure@1@@Z 0040c410 f i Maze.obj
 0001:0000b520       ??Y?$_Vector_const_iterator@V?$set@HU?$less@H@std@@V?$allocator@H@2@@std@@V?$allocator@V?$set@HU?$less@H@std@@V?$allocator@H@2@@std@@@2@@std@@QAEAAV01@H@Z 0040c520 f i Maze.obj
 0001:0000b660       ?_Getmycont@_Iterator_base@std@@QBEPBV_Container_base_secure@2@XZ 0040c660 f i Maze.obj
 0001:0000b680       ?_Has_container@_Iterator_base@std@@QBE_NXZ 0040c680 f i Maze.obj
 0001:0000b6b0       ??G?$_Vector_const_iterator@V?$set@HU?$less@H@std@@V?$allocator@H@2@@std@@V?$allocator@V?$set@HU?$less@H@std@@V?$allocator@H@2@@std@@@2@@std@@QBEHABV01@@Z 0040c6b0 f i Maze.obj
 0001:0000b700       ??0?$_Vector_iterator@Uwall@@V?$allocator@Uwall@@@std@@@std@@QAE@PAUwall@@PBV_Container_base_secure@1@@Z 0040c700 f i Maze.obj
 0001:0000b740       ??H?$_Vector_iterator@Uwall@@V?$allocator@Uwall@@@std@@@std@@QBE?AV01@H@Z 0040c740 f i Maze.obj
 0001:0000b850       ??G?$_Vector_const_iterator@Uwall@@V?$allocator@Uwall@@@std@@@std@@QBEHABV01@@Z 0040c850 f i Maze.obj
 0001:0000b8a0       ??0?$_Bidit@HHPBHABH@std@@QAE@XZ 0040c8a0 f i Maze.obj
 0001:0000b8d0       ??0?$set@HU?$less@H@std@@V?$allocator@H@2@@std@@QAE@ABV01@@Z 0040c8d0 f i Maze.obj
 0001:0000b910       ??0?$_Ranit@V?$set@HU?$less@H@std@@V?$allocator@H@2@@std@@HPBV12@ABV12@@std@@QAE@XZ 0040c910 f i Maze.obj
 0001:0000b940       ??0?$_Vector_iterator@Uwall@@V?$allocator@Uwall@@@std@@@std@@QAE@ABV01@@Z 0040c940 f i Maze.obj
 0001:0000b980       ??0?$_Iterator_with_base@Ubidirectional_iterator_tag@std@@HHPBHABHV_Iterator_base@2@@std@@QAE@XZ 0040c980 f i Maze.obj
 0001:0000b9b0       ??0_Iterator_base@std@@QAE@XZ 0040c9b0 f i Maze.obj
 0001:0000b9f0       ??0?$_Iterator_with_base@Urandom_access_iterator_tag@std@@V?$set@HU?$less@H@std@@V?$allocator@H@2@@2@HPBV32@ABV32@V_Iterator_base@2@@std@@QAE@XZ 0040c9f0 f i Maze.obj
 0001:0000ba20       ??0?$_Tree@V?$_Tset_traits@HU?$less@H@std@@V?$allocator@H@2@$0A@@std@@@std@@QAE@ABV01@@Z 0040ca20 f i Maze.obj
 0001:0000bb30       ?_Make_iter@?$_Tree@V?$_Tset_traits@HU?$less@H@std@@V?$allocator@H@2@$0A@@std@@@std@@QBE?AViterator@12@Vconst_iterator@12@@Z 0040cb30 f i Maze.obj
 0001:0000bc20       ?erase@?$_Tree@V?$_Tset_traits@HU?$less@H@std@@V?$allocator@H@2@$0A@@std@@@std@@QAE?AViterator@12@Vconst_iterator@12@@Z 0040cc20 f i Maze.obj
 0001:0000c640       ?clear@?$_Tree@V?$_Tset_traits@HU?$less@H@std@@V?$allocator@H@2@$0A@@std@@@std@@QAEXXZ 0040d640 f i Maze.obj
 0001:0000c6e0       ?_Buynode@?$_Tree@V?$_Tset_traits@HU?$less@H@std@@V?$allocator@H@2@$0A@@std@@@std@@IAEPAU_Node@?$_Tree_nod@V?$_Tset_traits@HU?$less@H@std@@V?$allocator@H@2@$0A@@std@@@2@XZ 0040d6e0 f i Maze.obj
 0001:0000c8f0       ??0?$_Tree_ptr@V?$_Tset_traits@HU?$less@H@std@@V?$allocator@H@2@$0A@@std@@@std@@QAE@ABU?$less@H@1@V?$allocator@H@1@@Z 0040d8f0 f i Maze.obj
 0001:0000c960       ?max_size@?$allocator@H@std@@QBEIXZ 0040d960 f i Maze.obj
 0001:0000c9c0       ?allocate@?$allocator@U_Node@?$_Tree_nod@V?$_Tset_traits@HU?$less@H@std@@V?$allocator@H@2@$0A@@std@@@std@@@std@@QAEPAU_Node@?$_Tree_nod@V?$_Tset_traits@HU?$less@H@std@@V?$allocator@H@2@$0A@@std@@@2@I@Z 0040d9c0 f i Maze.obj
 0001:0000ca00       ??Econst_iterator@?$_Tree@V?$_Tset_traits@HU?$less@H@std@@V?$allocator@H@2@$0A@@std@@@std@@QAE?AV012@H@Z 0040da00 f i Maze.obj
 0001:0000cb00       ?_Dec@const_iterator@?$_Tree@V?$_Tset_traits@HU?$less@H@std@@V?$allocator@H@2@$0A@@std@@@std@@QAEXXZ 0040db00 f i Maze.obj
 0001:0000cdd0       ?max_size@?$allocator@V?$set@HU?$less@H@std@@V?$allocator@H@2@@std@@@std@@QBEIXZ 0040ddd0 f i Maze.obj
 0001:0000ce30       ?max_size@?$allocator@Uwall@@@std@@QBEIXZ 0040de30 f i Maze.obj
 0001:0000ce90       ?_Compat@?$_Vector_const_iterator@V?$set@HU?$less@H@std@@V?$allocator@H@2@@std@@V?$allocator@V?$set@HU?$less@H@std@@V?$allocator@H@2@@std@@@2@@std@@QBEXABV12@@Z 0040de90 f i Maze.obj
 0001:0000cf40       ??Y?$_Vector_iterator@Uwall@@V?$allocator@Uwall@@@std@@@std@@QAEAAV01@H@Z 0040df40 f i Maze.obj
 0001:0000cf80       ??0?$_Vector_const_iterator@Uwall@@V?$allocator@Uwall@@@std@@@std@@QAE@PAUwall@@PBV_Container_base_secure@1@@Z 0040df80 f i Maze.obj
 0001:0000d090       ?_Compat@?$_Vector_const_iterator@Uwall@@V?$allocator@Uwall@@@std@@@std@@QBEXABV12@@Z 0040e090 f i Maze.obj
 0001:0000d140       ??0_Node@?$_Tree_nod@V?$_Tset_traits@HU?$less@H@std@@V?$allocator@H@2@$0A@@std@@@std@@QAE@PAU012@00ABHD@Z 0040e140 f i Maze.obj
 0001:0000d1a0       ??0?$_Ranit@Uwall@@HPBU1@ABU1@@std@@QAE@XZ 0040e1a0 f i Maze.obj
 0001:0000d1d0       ??0?$_Iterator_with_base@Urandom_access_iterator_tag@std@@Uwall@@HPBU3@ABU3@V_Iterator_base@2@@std@@QAE@XZ 0040e1d0 f i Maze.obj
 0001:0000d200       ?get_allocator@?$_Tree@V?$_Tset_traits@HU?$less@H@std@@V?$allocator@H@2@$0A@@std@@@std@@QBE?AV?$allocator@H@2@XZ 0040e200 f i Maze.obj
 0001:0000d240       ?key_comp@?$_Tree@V?$_Tset_traits@HU?$less@H@std@@V?$allocator@H@2@$0A@@std@@@std@@QBE?AU?$less@H@2@XZ 0040e240 f i Maze.obj
 0001:0000d260       ?_Copy@?$_Tree@V?$_Tset_traits@HU?$less@H@std@@V?$allocator@H@2@$0A@@std@@@std@@IAEXABV12@@Z 0040e260 f i Maze.obj
 0001:0000d370       ?_Erase@?$_Tree@V?$_Tset_traits@HU?$less@H@std@@V?$allocator@H@2@$0A@@std@@@std@@IAEXPAU_Node@?$_Tree_nod@V?$_Tset_traits@HU?$less@H@std@@V?$allocator@H@2@$0A@@std@@@2@@Z 0040e370 f i Maze.obj
 0001:0000d430       ?_Max@?$_Tree@V?$_Tset_traits@HU?$less@H@std@@V?$allocator@H@2@$0A@@std@@@std@@KAPAU_Node@?$_Tree_nod@V?$_Tset_traits@HU?$less@H@std@@V?$allocator@H@2@$0A@@std@@@2@PAU342@@Z 0040e430 f i Maze.obj
 0001:0000d480       ?_Min@?$_Tree@V?$_Tset_traits@HU?$less@H@std@@V?$allocator@H@2@$0A@@std@@@std@@KAPAU_Node@?$_Tree_nod@V?$_Tset_traits@HU?$less@H@std@@V?$allocator@H@2@$0A@@std@@@2@PAU342@@Z 0040e480 f i Maze.obj
 0001:0000d4d0       ?_Orphan_ptr@?$_Tree@V?$_Tset_traits@HU?$less@H@std@@V?$allocator@H@2@$0A@@std@@@std@@IBEXAAV12@PAU_Node@?$_Tree_nod@V?$_Tset_traits@HU?$less@H@std@@V?$allocator@H@2@$0A@@std@@@2@@Z 0040e4d0 f i Maze.obj
 0001:0000d5d0       ??0?$_Tree_nod@V?$_Tset_traits@HU?$less@H@std@@V?$allocator@H@2@$0A@@std@@@std@@IAE@ABU?$less@H@1@V?$allocator@H@1@@Z 0040e5d0 f i Maze.obj
 0001:0000d640       ?destroy@?$allocator@U_Node@?$_Tree_nod@V?$_Tset_traits@HU?$less@H@std@@V?$allocator@H@2@$0A@@std@@@std@@@std@@QAEXPAU_Node@?$_Tree_nod@V?$_Tset_traits@HU?$less@H@std@@V?$allocator@H@2@$0A@@std@@@2@@Z 0040e640 f i Maze.obj
 0001:0000d680       ?construct@?$allocator@PAU_Node@?$_Tree_nod@V?$_Tset_traits@HU?$less@H@std@@V?$allocator@H@2@$0A@@std@@@std@@@std@@QAEXPAPAU_Node@?$_Tree_nod@V?$_Tset_traits@HU?$less@H@std@@V?$allocator@H@2@$0A@@std@@@2@ABQAU342@@Z 0040e680 f i Maze.obj
 0001:0000d6c0       ??Econst_iterator@?$_Tree@V?$_Tset_traits@HU?$less@H@std@@V?$allocator@H@2@$0A@@std@@@std@@QAEAAV012@XZ 0040e6c0 f i Maze.obj
 0001:0000d6f0       ??Y?$_Vector_const_iterator@Uwall@@V?$allocator@Uwall@@@std@@@std@@QAEAAV01@H@Z 0040e6f0 f i Maze.obj
 0001:0000d830       ?size@?$_Tree@V?$_Tset_traits@HU?$less@H@std@@V?$allocator@H@2@$0A@@std@@@std@@QBEIXZ 0040e830 f i Maze.obj
 0001:0000d850       ?_Copy@?$_Tree@V?$_Tset_traits@HU?$less@H@std@@V?$allocator@H@2@$0A@@std@@@std@@IAEPAU_Node@?$_Tree_nod@V?$_Tset_traits@HU?$less@H@std@@V?$allocator@H@2@$0A@@std@@@2@PAU342@0@Z 0040e850 f i Maze.obj
 0001:0000da40       ??0?$_Tset_traits@HU?$less@H@std@@V?$allocator@H@2@$0A@@std@@QAE@U?$less@H@1@V?$allocator@H@1@@Z 0040ea40 f i Maze.obj
 0001:0000daa0       ?_Inc@const_iterator@?$_Tree@V?$_Tset_traits@HU?$less@H@std@@V?$allocator@H@2@$0A@@std@@@std@@QAEXXZ 0040eaa0 f i Maze.obj
 0001:0000dc30       ??0?$_Container_base_aux_alloc_empty@V?$allocator@H@std@@@std@@IAE@V?$allocator@H@1@@Z 0040ec30 f i Maze.obj
 0001:0000dc70       ??$insert@Viterator@?$_Tree@V?$_Tset_traits@HU?$less@H@std@@V?$allocator@H@2@$0A@@std@@@std@@@?$_Tree@V?$_Tset_traits@HU?$less@H@std@@V?$allocator@H@2@$0A@@std@@@std@@QAEXViterator@01@0@Z 0040ec70 f i Maze.obj
 0001:0000ddb0       ??$_Debug_lt_pred@U?$less@H@std@@HH@std@@YA_NU?$less@H@0@ABH1PB_WI@Z 0040edb0 f i Maze.obj
 0001:0000de20       ??$unchecked_copy@PAV?$set@HU?$less@H@std@@V?$allocator@H@2@@std@@PAV12@@stdext@@YAPAV?$set@HU?$less@H@std@@V?$allocator@H@2@@std@@PAV12@00@Z 0040ee20 f i Maze.obj
 0001:0000dec0       ??$_Destroy_range@V?$allocator@V?$set@HU?$less@H@std@@V?$allocator@H@2@@std@@@std@@@std@@YAXPAV?$set@HU?$less@H@std@@V?$allocator@H@2@@0@0AAV?$allocator@V?$set@HU?$less@H@std@@V?$allocator@H@2@@std@@@0@@Z 0040eec0 f i Maze.obj
 0001:0000df20       ??$unchecked_uninitialized_fill_n@PAV?$set@HU?$less@H@std@@V?$allocator@H@2@@std@@IV12@V?$allocator@V?$set@HU?$less@H@std@@V?$allocator@H@2@@std@@@2@@stdext@@YAXPAV?$set@HU?$less@H@std@@V?$allocator@H@2@@std@@IABV12@AAV?$allocator@V?$set@HU?$less@H@std@@V?$allocator@H@2@@std@@@2@@Z 0040ef20 f i Maze.obj
 0001:0000df90       ??$unchecked_uninitialized_fill_n@PAUwall@@IU1@V?$allocator@Uwall@@@std@@@stdext@@YAXPAUwall@@IABU1@AAV?$allocator@Uwall@@@std@@@Z 0040ef90 f i Maze.obj
 0001:0000e000       ??$_Destroy@PAU_Node@?$_Tree_nod@V?$_Tset_traits@HU?$less@H@std@@V?$allocator@H@2@$0A@@std@@@std@@@std@@YAXPAPAU_Node@?$_Tree_nod@V?$_Tset_traits@HU?$less@H@std@@V?$allocator@H@2@$0A@@std@@@0@@Z 0040f000 f i Maze.obj
 0001:0000e010       ??$_Umove@PAV?$set@HU?$less@H@std@@V?$allocator@H@2@@std@@@?$vector@V?$set@HU?$less@H@std@@V?$allocator@H@2@@std@@V?$allocator@V?$set@HU?$less@H@std@@V?$allocator@H@2@@std@@@2@@std@@IAEPAV?$set@HU?$less@H@std@@V?$allocator@H@2@@1@PAV21@00@Z 0040f010 f i Maze.obj
 0001:0000e060       ??$fill@PAV?$set@HU?$less@H@std@@V?$allocator@H@2@@std@@V12@@std@@YAXPAV?$set@HU?$less@H@std@@V?$allocator@H@2@@0@0ABV10@@Z 0040f060 f i Maze.obj
 0001:0000e0a0       ??$_Unchecked_move_backward@PAV?$set@HU?$less@H@std@@V?$allocator@H@2@@std@@PAV12@@stdext@@YAPAV?$set@HU?$less@H@std@@V?$allocator@H@2@@std@@PAV12@00@Z 0040f0a0 f i Maze.obj
 0001:0000e140       ??$_Allocate@V?$set@HU?$less@H@std@@V?$allocator@H@2@@std@@@std@@YAPAV?$set@HU?$less@H@std@@V?$allocator@H@2@@0@IPAV10@@Z 0040f140 f i Maze.obj
 0001:0000e1d0       ??$_Destroy_range@V?$allocator@Uwall@@@std@@@std@@YAXPAUwall@@0AAV?$allocator@Uwall@@@0@@Z 0040f1d0 f i Maze.obj
 0001:0000e230       ??$_Umove@PAUwall@@@?$vector@Uwall@@V?$allocator@Uwall@@@std@@@std@@IAEPAUwall@@PAU2@00@Z 0040f230 f i Maze.obj
 0001:0000e280       ??$fill@PAUwall@@U1@@std@@YAXPAUwall@@0ABU1@@Z 0040f280 f i Maze.obj
 0001:0000e2c0       ??$_Unchecked_move_backward@PAUwall@@PAU1@@stdext@@YAPAUwall@@PAU1@00@Z 0040f2c0 f i Maze.obj
 0001:0000e360       ??$_Allocate@Uwall@@@std@@YAPAUwall@@IPAU1@@Z 0040f360 f i Maze.obj
 0001:0000e3f0       ??$swap@D@std@@YAXAAD0@Z   0040f3f0 f i Maze.obj
 0001:0000e430       ??$?0H@?$allocator@PAU_Node@?$_Tree_nod@V?$_Tset_traits@HU?$less@H@std@@V?$allocator@H@2@$0A@@std@@@std@@@std@@QAE@ABV?$allocator@H@1@@Z 0040f430 f i Maze.obj
 0001:0000e450       ??$_Allocate@U_Node@?$_Tree_nod@V?$_Tset_traits@HU?$less@H@std@@V?$allocator@H@2@$0A@@std@@@std@@@std@@YAPAU_Node@?$_Tree_nod@V?$_Tset_traits@HU?$less@H@std@@V?$allocator@H@2@$0A@@std@@@0@IPAU120@@Z 0040f450 f i Maze.obj
 0001:0000e4e0       ??$?0H@?$allocator@U_Node@?$_Tree_nod@V?$_Tset_traits@HU?$less@H@std@@V?$allocator@H@2@$0A@@std@@@std@@@std@@QAE@ABV?$allocator@H@1@@Z 0040f4e0 f i Maze.obj
 0001:0000e500       ??$_Destroy@U_Node@?$_Tree_nod@V?$_Tset_traits@HU?$less@H@std@@V?$allocator@H@2@$0A@@std@@@std@@@std@@YAXPAU_Node@?$_Tree_nod@V?$_Tset_traits@HU?$less@H@std@@V?$allocator@H@2@$0A@@std@@@0@@Z 0040f500 f i Maze.obj
 0001:0000e510       ??$_Construct@PAU_Node@?$_Tree_nod@V?$_Tset_traits@HU?$less@H@std@@V?$allocator@H@2@$0A@@std@@@std@@PAU123@@std@@YAXPAPAU_Node@?$_Tree_nod@V?$_Tset_traits@HU?$less@H@std@@V?$allocator@H@2@$0A@@std@@@0@ABQAU120@@Z 0040f510 f i Maze.obj
 0001:0000e590       ??R?$less@H@std@@QBE_NABH0@Z 0040f590 f i Maze.obj
 0001:0000e5c0       ??Diterator@?$_Tree@V?$_Tset_traits@HU?$less@H@std@@V?$allocator@H@2@$0A@@std@@@std@@QBEAAHXZ 0040f5c0 f i Maze.obj
 0001:0000e5f0       ??Eiterator@?$_Tree@V?$_Tset_traits@HU?$less@H@std@@V?$allocator@H@2@$0A@@std@@@std@@QAEAAV012@XZ 0040f5f0 f i Maze.obj
 0001:0000e620       ??Dconst_iterator@?$_Tree@V?$_Tset_traits@HU?$less@H@std@@V?$allocator@H@2@$0A@@std@@@std@@QBEABHXZ 0040f620 f i Maze.obj
 0001:0000e6f0       ??$_Debug_range@Viterator@?$_Tree@V?$_Tset_traits@HU?$less@H@std@@V?$allocator@H@2@$0A@@std@@@std@@@std@@YAXViterator@?$_Tree@V?$_Tset_traits@HU?$less@H@std@@V?$allocator@H@2@$0A@@std@@@0@0PB_WI@Z 0040f6f0 f i Maze.obj
 0001:0000e800       ??$_Checked_base@PAV?$set@HU?$less@H@std@@V?$allocator@H@2@@std@@@std@@YAPAV?$set@HU?$less@H@std@@V?$allocator@H@2@@0@AAPAV10@@Z 0040f800 f i Maze.obj
 0001:0000e890       ??$_Iter_random@PAV?$set@HU?$less@H@std@@V?$allocator@H@2@@std@@PAV12@@std@@YA?AUrandom_access_iterator_tag@0@ABQAV?$set@HU?$less@H@std@@V?$allocator@H@2@@0@0@Z 0040f890 f i Maze.obj
 0001:0000e8f0       ??$_Ptr_cat@PAV?$set@HU?$less@H@std@@V?$allocator@H@2@@std@@PAV12@@std@@YA?AU_Nonscalar_ptr_iterator_tag@0@AAPAV?$set@HU?$less@H@std@@V?$allocator@H@2@@0@0@Z 0040f8f0 f i Maze.obj
 0001:0000e950       ??$_Copy_opt@PAV?$set@HU?$less@H@std@@V?$allocator@H@2@@std@@PAV12@@std@@YAPAV?$set@HU?$less@H@std@@V?$allocator@H@2@@0@PAV10@00Urandom_access_iterator_tag@0@U_Nonscalar_ptr_iterator_tag@0@U_Range_checked_iterator_tag@0@@Z 0040f950 f i Maze.obj
 0001:0000e9e0       ??$_Destroy_range@V?$allocator@V?$set@HU?$less@H@std@@V?$allocator@H@2@@std@@@std@@@std@@YAXPAV?$set@HU?$less@H@std@@V?$allocator@H@2@@0@0AAV?$allocator@V?$set@HU?$less@H@std@@V?$allocator@H@2@@std@@@0@U_Nonscalar_ptr_iterator_tag@0@@Z 0040f9e0 f i Maze.obj
 0001:0000ea20       ??$_Uninit_fill_n@PAV?$set@HU?$less@H@std@@V?$allocator@H@2@@std@@IV12@V?$allocator@V?$set@HU?$less@H@std@@V?$allocator@H@2@@std@@@2@@std@@YAXPAV?$set@HU?$less@H@std@@V?$allocator@H@2@@0@IABV10@AAV?$allocator@V?$set@HU?$less@H@std@@V?$allocator@H@2@@std@@@0@U_Nonscalar_ptr_iterator_tag@0@U_Range_checked_iterator_tag@0@@Z 0040fa20 f i Maze.obj
 0001:0000eb20       ??$_Ptr_cat@PAUwall@@PAU1@@std@@YA?AU_Nonscalar_ptr_iterator_tag@0@AAPAUwall@@0@Z 0040fb20 f i Maze.obj
 0001:0000eb80       ??$_Uninit_fill_n@PAUwall@@IU1@V?$allocator@Uwall@@@std@@@std@@YAXPAUwall@@IABU1@AAV?$allocator@Uwall@@@0@U_Nonscalar_ptr_iterator_tag@0@U_Range_checked_iterator_tag@0@@Z 0040fb80 f i Maze.obj
 0001:0000ec80       ??$_Unchecked_uninitialized_move@PAV?$set@HU?$less@H@std@@V?$allocator@H@2@@std@@PAV12@V?$allocator@V?$set@HU?$less@H@std@@V?$allocator@H@2@@std@@@2@@stdext@@YAPAV?$set@HU?$less@H@std@@V?$allocator@H@2@@std@@PAV12@00AAV?$allocator@V?$set@HU?$less@H@std@@V?$allocator@H@2@@std@@@2@@Z 0040fc80 f i Maze.obj
 0001:0000ed00       ??$_Fill@PAV?$set@HU?$less@H@std@@V?$allocator@H@2@@std@@V12@@std@@YAXPAV?$set@HU?$less@H@std@@V?$allocator@H@2@@0@0ABV10@@Z 0040fd00 f i Maze.obj
 0001:0000ed60       ??$_Move_cat@PAV?$set@HU?$less@H@std@@V?$allocator@H@2@@std@@@std@@YA?AU_Swap_move_tag@0@ABQAV?$set@HU?$less@H@std@@V?$allocator@H@2@@0@@Z 0040fd60 f i Maze.obj
 0001:0000edc0       ??$_Move_backward_opt@PAV?$set@HU?$less@H@std@@V?$allocator@H@2@@std@@PAV12@@std@@YAPAV?$set@HU?$less@H@std@@V?$allocator@H@2@@0@PAV10@00Urandom_access_iterator_tag@0@U_Swap_move_tag@0@U_Range_checked_iterator_tag@0@@Z 0040fdc0 f i Maze.obj
 0001:0000ee50       ??$_Destroy_range@V?$allocator@Uwall@@@std@@@std@@YAXPAUwall@@0AAV?$allocator@Uwall@@@0@U_Nonscalar_ptr_iterator_tag@0@@Z 0040fe50 f i Maze.obj
 0001:0000ee90       ??$_Unchecked_uninitialized_move@PAUwall@@PAU1@V?$allocator@Uwall@@@std@@@stdext@@YAPAUwall@@PAU1@00AAV?$allocator@Uwall@@@std@@@Z 0040fe90 f i Maze.obj
 0001:0000ef10       ??$_Checked_base@PAUwall@@@std@@YAPAUwall@@AAPAU1@@Z 0040ff10 f i Maze.obj
 0001:0000efa0       ??$_Fill@PAUwall@@U1@@std@@YAXPAUwall@@0ABU1@@Z 0040ffa0 f i Maze.obj
 0001:0000f000       ??$_Iter_random@PAUwall@@PAU1@@std@@YA?AUrandom_access_iterator_tag@0@ABQAUwall@@0@Z 00410000 f i Maze.obj
 0001:0000f060       ??$_Move_cat@PAUwall@@@std@@YA?AU_Undefined_move_tag@0@ABQAUwall@@@Z 00410060 f i Maze.obj
 0001:0000f0c0       ??$_Move_backward_opt@PAUwall@@PAU1@Urandom_access_iterator_tag@std@@U_Undefined_move_tag@3@@std@@YAPAUwall@@PAU1@00Urandom_access_iterator_tag@0@U_Undefined_move_tag@0@U_Range_checked_iterator_tag@0@@Z 004100c0 f i Maze.obj
 0001:0000f130       ??4?$set@HU?$less@H@std@@V?$allocator@H@2@@std@@QAEAAV01@ABV01@@Z 00410130 f i Maze.obj
 0001:0000f170       ??4?$_Tree@V?$_Tset_traits@HU?$less@H@std@@V?$allocator@H@2@$0A@@std@@@std@@QAEAAV01@ABV01@@Z 00410170 f i Maze.obj
 0001:0000f2d0       ?construct@?$allocator@V?$set@HU?$less@H@std@@V?$allocator@H@2@@std@@@std@@QAEXPAV?$set@HU?$less@H@std@@V?$allocator@H@2@@2@ABV32@@Z 004102d0 f i Maze.obj
 0001:0000f310       ?destroy@?$allocator@V?$set@HU?$less@H@std@@V?$allocator@H@2@@std@@@std@@QAEXPAV?$set@HU?$less@H@std@@V?$allocator@H@2@@2@@Z 00410310 f i Maze.obj
 0001:0000f350       ?construct@?$allocator@Uwall@@@std@@QAEXPAUwall@@ABU3@@Z 00410350 f i Maze.obj
 0001:0000f390       ?destroy@?$allocator@Uwall@@@std@@QAEXPAUwall@@@Z 00410390 f i Maze.obj
 0001:0000f3d0       ??$_Iter_cat@Viterator@?$_Tree@V?$_Tset_traits@HU?$less@H@std@@V?$allocator@H@2@$0A@@std@@@std@@@std@@YA?AUbidirectional_iterator_tag@0@ABViterator@?$_Tree@V?$_Tset_traits@HU?$less@H@std@@V?$allocator@H@2@$0A@@std@@@0@@Z 004103d0 f i Maze.obj
 0001:0000f430       ??$_Debug_range2@Viterator@?$_Tree@V?$_Tset_traits@HU?$less@H@std@@V?$allocator@H@2@$0A@@std@@@std@@@std@@YAXViterator@?$_Tree@V?$_Tset_traits@HU?$less@H@std@@V?$allocator@H@2@$0A@@std@@@0@0PB_WIUinput_iterator_tag@0@@Z 00410430 f i Maze.obj
 0001:0000f4a0       ??$_Checked_base@PAV?$set@HU?$less@H@std@@V?$allocator@H@2@@std@@@std@@YAPAV?$set@HU?$less@H@std@@V?$allocator@H@2@@0@AAPAV10@U_Unchanged_checked_iterator_base_type_tag@0@@Z 004104a0 f i Maze.obj
 0001:0000f4b0       ??$_Copy_opt@PAV?$set@HU?$less@H@std@@V?$allocator@H@2@@std@@PAV12@Uforward_iterator_tag@2@@std@@YAPAV?$set@HU?$less@H@std@@V?$allocator@H@2@@0@PAV10@00Uforward_iterator_tag@0@U_Nonscalar_ptr_iterator_tag@0@U_Range_checked_iterator_tag@0@@Z 004104b0 f i Maze.obj
 0001:0000f520       ??$_Uninit_move@PAV?$set@HU?$less@H@std@@V?$allocator@H@2@@std@@PAV12@V?$allocator@V?$set@HU?$less@H@std@@V?$allocator@H@2@@std@@@2@@std@@YAPAV?$set@HU?$less@H@std@@V?$allocator@H@2@@0@PAV10@00AAV?$allocator@V?$set@HU?$less@H@std@@V?$allocator@H@2@@std@@@0@U_Swap_move_tag@0@U_Range_checked_iterator_tag@0@@Z 00410520 f i Maze.obj
 0001:0000f6e0       ??$_Debug_range@PAV?$set@HU?$less@H@std@@V?$allocator@H@2@@std@@@std@@YAXPAV?$set@HU?$less@H@std@@V?$allocator@H@2@@0@0PB_WI@Z 004106e0 f i Maze.obj
 0001:0000f740       ??$_Move_backward_opt@PAV?$set@HU?$less@H@std@@V?$allocator@H@2@@std@@PAV12@Uforward_iterator_tag@2@@std@@YAPAV?$set@HU?$less@H@std@@V?$allocator@H@2@@0@PAV10@00Uforward_iterator_tag@0@U_Swap_move_tag@0@U_Range_checked_iterator_tag@0@@Z 00410740 f i Maze.obj
 0001:0000f7b0       ??$_Uninit_move@PAUwall@@PAU1@V?$allocator@Uwall@@@std@@U_Undefined_move_tag@3@@std@@YAPAUwall@@PAU1@00AAV?$allocator@Uwall@@@0@U_Undefined_move_tag@0@U_Range_checked_iterator_tag@0@@Z 004107b0 f i Maze.obj
 0001:0000f7e0       ??$_Checked_base@PAUwall@@@std@@YAPAUwall@@AAPAU1@U_Unchanged_checked_iterator_base_type_tag@0@@Z 004107e0 f i Maze.obj
 0001:0000f7f0       ??$_Debug_range@PAUwall@@@std@@YAXPAUwall@@0PB_WI@Z 004107f0 f i Maze.obj
 0001:0000f850       ??$_Copy_backward_opt@PAUwall@@PAU1@@std@@YAPAUwall@@PAU1@00Urandom_access_iterator_tag@0@U_Nonscalar_ptr_iterator_tag@0@U_Range_checked_iterator_tag@0@@Z 00410850 f i Maze.obj
 0001:0000f8e0       ??$_Construct@V?$set@HU?$less@H@std@@V?$allocator@H@2@@std@@V12@@std@@YAXPAV?$set@HU?$less@H@std@@V?$allocator@H@2@@0@ABV10@@Z 004108e0 f i Maze.obj
 0001:0000f9a0       ??$_Destroy@V?$set@HU?$less@H@std@@V?$allocator@H@2@@std@@@std@@YAXPAV?$set@HU?$less@H@std@@V?$allocator@H@2@@0@@Z 004109a0 f i Maze.obj
 0001:0000f9c0       ??$_Construct@Uwall@@U1@@std@@YAXPAUwall@@ABU1@@Z 004109c0 f i Maze.obj
 0001:0000fa40       ??$_Destroy@Uwall@@@std@@YAXPAUwall@@@Z 00410a40 f i Maze.obj
 0001:0000fa50       ??_G?$set@HU?$less@H@std@@V?$allocator@H@2@@std@@QAEPAXI@Z 00410a50 f i Maze.obj
 0001:0000faa0       ??$_Debug_pointer@V?$set@HU?$less@H@std@@V?$allocator@H@2@@std@@@std@@YAXPAV?$set@HU?$less@H@std@@V?$allocator@H@2@@0@PB_WI@Z 00410aa0 f i Maze.obj
 0001:0000fad0       ??$_Swap_adl@V?$set@HU?$less@H@std@@V?$allocator@H@2@@std@@@std@@YAXAAV?$set@HU?$less@H@std@@V?$allocator@H@2@@0@0@Z 00410ad0 f i Maze.obj
 0001:0000fb00       ??$_Iter_cat@PAV?$set@HU?$less@H@std@@V?$allocator@H@2@@std@@@std@@YA?AUrandom_access_iterator_tag@0@ABQAV?$set@HU?$less@H@std@@V?$allocator@H@2@@0@@Z 00410b00 f i Maze.obj
 0001:0000fb60       ??$_Debug_range2@PAV?$set@HU?$less@H@std@@V?$allocator@H@2@@std@@@std@@YAXPAV?$set@HU?$less@H@std@@V?$allocator@H@2@@0@0PB_WIUrandom_access_iterator_tag@0@@Z 00410b60 f i Maze.obj
 0001:0000fbd0       ??$unchecked_uninitialized_copy@PAUwall@@PAU1@V?$allocator@Uwall@@@std@@@stdext@@YAPAUwall@@PAU1@00AAV?$allocator@Uwall@@@std@@@Z 00410bd0 f i Maze.obj
 0001:0000fc50       ??$_Iter_cat@PAUwall@@@std@@YA?AUrandom_access_iterator_tag@0@ABQAUwall@@@Z 00410c50 f i Maze.obj
 0001:0000fcb0       ??$_Debug_range2@PAUwall@@@std@@YAXPAUwall@@0PB_WIUrandom_access_iterator_tag@0@@Z 00410cb0 f i Maze.obj
 0001:0000fd20       ??$_Copy_backward_opt@PAUwall@@PAU1@Uforward_iterator_tag@std@@@std@@YAPAUwall@@PAU1@00Uforward_iterator_tag@0@U_Nonscalar_ptr_iterator_tag@0@U_Range_checked_iterator_tag@0@@Z 00410d20 f i Maze.obj
 0001:0000fd90       ??$swap@HU?$less@H@std@@V?$allocator@H@2@@std@@YAXAAV?$set@HU?$less@H@std@@V?$allocator@H@2@@0@0@Z 00410d90 f i Maze.obj
 0001:0000fdb0       ??$_Uninit_copy@PAUwall@@PAU1@V?$allocator@Uwall@@@std@@@std@@YAPAUwall@@PAU1@00AAV?$allocator@Uwall@@@0@U_Nonscalar_ptr_iterator_tag@0@U_Range_checked_iterator_tag@0@@Z 00410db0 f i Maze.obj
 0001:0000fef0       ??$_Debug_pointer@Uwall@@@std@@YAXPAUwall@@PB_WI@Z 00410ef0 f i Maze.obj
 0001:0000ff20       ?swap@?$_Tree@V?$_Tset_traits@HU?$less@H@std@@V?$allocator@H@2@$0A@@std@@@std@@QAEXAAV12@@Z 00410f20 f i Maze.obj
 0001:000100d0       ?_Swap_aux@_Container_base_secure@std@@QAEXAAV12@@Z 004110d0 f i Maze.obj
 0001:000100f0       ?_Swap_all@_Container_base_secure@std@@QBEXAAV12@@Z 004110f0 f i Maze.obj
 0001:00010210       ??$?8HH@std@@YA_NABV?$allocator@H@0@0@Z 00411210 f i Maze.obj
 0001:00010220       ??$_Swap_adl@U?$less@H@std@@@std@@YAXAAU?$less@H@0@0@Z 00411220 f i Maze.obj
 0001:00010250       ??$swap@PAU_Node@?$_Tree_nod@V?$_Tset_traits@HU?$less@H@std@@V?$allocator@H@2@$0A@@std@@@std@@@std@@YAXAAPAU_Node@?$_Tree_nod@V?$_Tset_traits@HU?$less@H@std@@V?$allocator@H@2@$0A@@std@@@0@0@Z 00411250 f i Maze.obj
 0001:00010290       ??$swap@I@std@@YAXAAI0@Z   00411290 f i Maze.obj
 0001:000102d0       ??$swap@U?$less@H@std@@@std@@YAXAAU?$less@H@0@0@Z 004112d0 f i Maze.obj
 0001:0001032c       _Direct3DCreate9@4         0041132c f   d3d9:d3d9.dll
 0001:00010332       _D3DXVec3TransformNormal@12 00411332 f   d3dx9:d3dx9_43.dll
 0001:00010338       _D3DXMatrixMultiply@12     00411338 f   d3dx9:d3dx9_43.dll
 0001:0001033e       _D3DXMatrixRotationY@8     0041133e f   d3dx9:d3dx9_43.dll
 0001:00010344       _D3DXMatrixRotationX@8     00411344 f   d3dx9:d3dx9_43.dll
 0001:0001034a       _D3DXMatrixInverse@12      0041134a f   d3dx9:d3dx9_43.dll
 0001:00010350       _D3DXMatrixPerspectiveFovRH@20 00411350 f   d3dx9:d3dx9_43.dll
 0001:00010356       _D3DXMatrixLookAtRH@16     00411356 f   d3dx9:d3dx9_43.dll
 0001:0001035c       _D3DXGetVertexShaderProfile@4 0041135c f   d3dx9:d3dx9_43.dll
 0001:00010362       _D3DXCompileShader@40      00411362 f   d3dx9:d3dx9_43.dll
 0001:00010368       _D3DXGetPixelShaderProfile@4 00411368 f   d3dx9:d3dx9_43.dll
 0001:0001036e       _DirectInput8Create@20     0041136e f   dinput8:DINPUT8.dll
 0001:00010374       _OutputDebugStringA@4      00411374 f   kernel32:KERNEL32.dll
 0001:0001037a       _GetTickCount@0            0041137a f   kernel32:KERNEL32.dll
 0001:00010380       _GetModuleHandleA@4        00411380 f   kernel32:KERNEL32.dll
 0001:00010386       _DebugBreak@0              00411386 f   kernel32:KERNEL32.dll
 0001:0001038c       _GetCursorPos@4            0041138c f   user32:USER32.dll
 0001:00010392       _DispatchMessageA@4        00411392 f   user32:USER32.dll
 0001:00010398       _TranslateMessage@4        00411398 f   user32:USER32.dll
 0001:0001039e       _PeekMessageA@20           0041139e f   user32:USER32.dll
 0001:000103a4       _ShowCursor@4              004113a4 f   user32:USER32.dll
 0001:000103aa       _MessageBoxA@16            004113aa f   user32:USER32.dll
 0001:000103b0       _ChangeDisplaySettingsA@8  004113b0 f   user32:USER32.dll
 0001:000103b6       _UnregisterClassA@8        004113b6 f   user32:USER32.dll
 0001:000103bc       _DestroyWindow@4           004113bc f   user32:USER32.dll
 0001:000103c2       _ReleaseDC@8               004113c2 f   user32:USER32.dll
 0001:000103c8       _GetDC@4                   004113c8 f   user32:USER32.dll
 0001:000103ce       _CreateWindowExA@48        004113ce f   user32:USER32.dll
 0001:000103d4       _GetSystemMetrics@4        004113d4 f   user32:USER32.dll
 0001:000103da       _AdjustWindowRect@12       004113da f   user32:USER32.dll
 0001:000103e0       _RegisterClassA@4          004113e0 f   user32:USER32.dll
 0001:000103e6       _DefWindowProcA@16         004113e6 f   user32:USER32.dll
 0001:000103ec       _PostQuitMessage@4         004113ec f   user32:USER32.dll
 0001:000103f2       _SetWindowTextA@8          004113f2 f   user32:USER32.dll
 0001:000103f8       _CreateSolidBrush@4        004113f8 f   gdi32:GDI32.dll
 0001:00010400       _memset                    00411400 f   LIBCMTD:memset.obj
 0001:00010480       __fpmath                   00411480 f   LIBCMTD:_fpinit_.obj
 0001:000104b0       __fpclear                  004114b0 f   LIBCMTD:_fpinit_.obj
 0001:000104c0       __cfltcvt_init             004114c0 f   LIBCMTD:_fpinit_.obj
 0001:00010530       ___setfflag                00411530 f   LIBCMTD:_fpinit_.obj
 0001:00010550       __RTC_CheckEsp             00411550 f   LIBCMTD:_stack_.obj
 0001:00010580       @_RTC_CheckStackVars@8     00411580 f   LIBCMTD:_stack_.obj
 0001:000105e0       @_RTC_AllocaHelper@12      004115e0 f   LIBCMTD:_stack_.obj
 0001:00010620       @_RTC_CheckStackVars2@12   00411620 f   LIBCMTD:_stack_.obj
 0001:00010700       __RTC_InitBase             00411700 f   LIBCMTD:_init_.obj
 0001:00010730       __RTC_Shutdown             00411730 f   LIBCMTD:_init_.obj
 0001:00010750       _memcpy                    00411750 f   LIBCMTD:memcpy.obj
 0001:00010ac0       __itoa                     00411ac0 f   LIBCMTD:xtoa.obj
 0001:00010bd0       __ltoa                     00411bd0 f   LIBCMTD:xtoa.obj
 0001:00010c10       __ultoa                    00411c10 f   LIBCMTD:xtoa.obj
 0001:00010c30       __i64toa                   00411c30 f   LIBCMTD:xtoa.obj
 0001:00010d80       __ui64toa                  00411d80 f   LIBCMTD:xtoa.obj
 0001:00010da0       ?_JumpToContinuation@@YGXPAXPAUEHRegistrationNode@@@Z 00411da0 f   LIBCMTD:_trnsctrl_.obj
 0001:00010de0       ?_CallMemberFunction0@@YGXPAX0@Z 00411de0 f   LIBCMTD:_trnsctrl_.obj
 0001:00010df0       ?_CallMemberFunction1@@YGXPAX00@Z 00411df0 f   LIBCMTD:_trnsctrl_.obj
 0001:00010e00       ?_CallMemberFunction2@@YGXPAX00H@Z 00411e00 f   LIBCMTD:_trnsctrl_.obj
 0001:00010e10       ?_UnwindNestedFrames@@YGXPAUEHRegistrationNode@@PAUEHExceptionRecord@@@Z 00411e10 f   LIBCMTD:_trnsctrl_.obj
 0001:00010e70       ___CxxFrameHandler         00411e70 f   LIBCMTD:_trnsctrl_.obj
 0001:00010eb0       ___CxxFrameHandler3        00411eb0 f   LIBCMTD:_trnsctrl_.obj
 0001:00010ef0       ___CxxFrameHandler2        00411ef0 f   LIBCMTD:_trnsctrl_.obj
 0001:00010f30       ___CxxLongjmpUnwind@4      00411f30 f   LIBCMTD:_trnsctrl_.obj
 0001:00010f60       ?_CallCatchBlock2@@YAPAXPAUEHRegistrationNode@@PBU_s_FuncInfo@@PAXHK@Z 00411f60 f   LIBCMTD:_trnsctrl_.obj
 0001:00011020       ?_CallSETranslator@@YAHPAUEHExceptionRecord@@PAUEHRegistrationNode@@PAX2PBU_s_FuncInfo@@H1@Z 00412020 f   LIBCMTD:_trnsctrl_.obj
 0001:000111c0       ?_GetRangeOfTrysToCheck@@YAPBU_s_TryBlockMapEntry@@PBU_s_FuncInfo@@HHPAI1@Z 004121c0 f   LIBCMTD:_trnsctrl_.obj
 0001:00011240       __CreateFrameInfo          00412240 f   LIBCMTD:_trnsctrl_.obj
 0001:00011270       __IsExceptionObjectToBeDestroyed 00412270 f   LIBCMTD:_trnsctrl_.obj
 0001:000112a0       __FindAndUnlinkFrame       004122a0 f   LIBCMTD:_trnsctrl_.obj
 0001:00011300       @__security_check_cookie@4 00412300 f   LIBCMTD:secchk.obj
 0001:00011310       ??3@YAXPAX@Z               00412310 f   LIBCMTD:dbgdel.obj
 0001:00011400       ??2@YAPAXI@Z               00412400 f   LIBCMTD:new.obj
 0001:00011480       ??0bad_alloc@std@@QAE@XZ   00412480 f i LIBCMTD:new.obj
 0001:000114b0       _sprintf                   004124b0 f   LIBCMTD:sprintf.obj
 0001:00011630       __sprintf_l                00412630 f   LIBCMTD:sprintf.obj
 0001:00011660       _sprintf_s                 00412660 f   LIBCMTD:sprintf.obj
 0001:00011690       __sprintf_s_l              00412690 f   LIBCMTD:sprintf.obj
 0001:000116c0       __snprintf_s               004126c0 f   LIBCMTD:sprintf.obj
 0001:000116f0       __snprintf_s_l             004126f0 f   LIBCMTD:sprintf.obj
 0001:00011720       __sprintf_p                00412720 f   LIBCMTD:sprintf.obj
 0001:00011750       __sprintf_p_l              00412750 f   LIBCMTD:sprintf.obj
 0001:00011780       __scprintf                 00412780 f   LIBCMTD:sprintf.obj
 0001:000117a0       __scprintf_p               004127a0 f   LIBCMTD:sprintf.obj
 0001:000117c0       __scprintf_l               004127c0 f   LIBCMTD:sprintf.obj
 0001:000117f0       __scprintf_p_l             004127f0 f   LIBCMTD:sprintf.obj
 0001:00011820       __CxxThrowException@8      00412820 f   LIBCMTD:throw.obj
 0001:00011880       ?name@type_info@@QBEPBDPAU__type_info_node@@@Z 00412880 f   LIBCMTD:typinfo.obj
 0001:000118a0       ??1type_info@@UAE@XZ       004128a0 f   LIBCMTD:typinfo.obj
 0001:000118d0       ??_Gtype_info@@UAEPAXI@Z   004128d0 f i LIBCMTD:typinfo.obj
 0001:000118d0       ??_Etype_info@@UAEPAXI@Z   004128d0 f i LIBCMTD:typinfo.obj
 0001:00011900       ?_name_internal_method@type_info@@QBEPBDPAU__type_info_node@@@Z 00412900 f   LIBCMTD:typinfo.obj
 0001:00011920       ?_type_info_dtor_internal_method@type_info@@QAEXXZ 00412920 f   LIBCMTD:typinfo.obj
 0001:00011940       ??8type_info@@QBE_NABV0@@Z 00412940 f   LIBCMTD:typinfo.obj
 0001:00011970       ??9type_info@@QBE_NABV0@@Z 00412970 f   LIBCMTD:typinfo.obj
 0001:000119a0       ?before@type_info@@QBEHABV1@@Z 004129a0 f   LIBCMTD:typinfo.obj
 0001:000119d0       ?raw_name@type_info@@QBEPBDXZ 004129d0 f   LIBCMTD:typinfo.obj
 0001:000119f0       ??0type_info@@AAE@ABV0@@Z  004129f0 f   LIBCMTD:typinfo.obj
 0001:00011a10       ??4type_info@@AAEAAV0@ABV0@@Z 00412a10 f   LIBCMTD:typinfo.obj
 0001:00011a30       ??0exception@std@@QAE@XZ   00412a30 f   LIBCMTD:stdexcpt.obj
 0001:00011a60       ??_Gexception@std@@UAEPAXI@Z 00412a60 f i LIBCMTD:stdexcpt.obj
 0001:00011a60       ??_Eexception@std@@UAEPAXI@Z 00412a60 f i LIBCMTD:stdexcpt.obj
 0001:00011a90       ??0exception@std@@QAE@ABQBD@Z 00412a90 f   LIBCMTD:stdexcpt.obj
 0001:00011b20       ??0exception@std@@QAE@ABQBDH@Z 00412b20 f   LIBCMTD:stdexcpt.obj
 0001:00011b50       ??0exception@std@@QAE@ABV01@@Z 00412b50 f   LIBCMTD:stdexcpt.obj
 0001:00011bf0       ??4exception@std@@QAEAAV01@ABV01@@Z 00412bf0 f   LIBCMTD:stdexcpt.obj
 0001:00011ca0       ??1exception@std@@UAE@XZ   00412ca0 f   LIBCMTD:stdexcpt.obj
 0001:00011cd0       ?what@exception@std@@UBEPBDXZ 00412cd0 f   LIBCMTD:stdexcpt.obj
 0001:00011d00       ??0bad_cast@std@@QAE@PBD@Z 00412d00 f   LIBCMTD:stdexcpt.obj
 0001:00011d30       ??_Gbad_cast@std@@UAEPAXI@Z 00412d30 f i LIBCMTD:stdexcpt.obj
 0001:00011d30       ??_Ebad_cast@std@@UAEPAXI@Z 00412d30 f i LIBCMTD:stdexcpt.obj
 0001:00011d60       ??0bad_cast@std@@QAE@ABV01@@Z 00412d60 f   LIBCMTD:stdexcpt.obj
 0001:00011d90       ??1bad_cast@std@@UAE@XZ    00412d90 f   LIBCMTD:stdexcpt.obj
 0001:00011db0       ??0bad_typeid@std@@QAE@PBD@Z 00412db0 f   LIBCMTD:stdexcpt.obj
 0001:00011de0       ??_Ebad_typeid@std@@UAEPAXI@Z 00412de0 f i LIBCMTD:stdexcpt.obj
 0001:00011de0       ??_Gbad_typeid@std@@UAEPAXI@Z 00412de0 f i LIBCMTD:stdexcpt.obj
 0001:00011e10       ??0bad_typeid@std@@QAE@ABV01@@Z 00412e10 f   LIBCMTD:stdexcpt.obj
 0001:00011e40       ??1bad_typeid@std@@UAE@XZ  00412e40 f   LIBCMTD:stdexcpt.obj
 0001:00011e60       ??0__non_rtti_object@std@@QAE@PBD@Z 00412e60 f   LIBCMTD:stdexcpt.obj
 0001:00011e90       ??_G__non_rtti_object@std@@UAEPAXI@Z 00412e90 f i LIBCMTD:stdexcpt.obj
 0001:00011e90       ??_E__non_rtti_object@std@@UAEPAXI@Z 00412e90 f i LIBCMTD:stdexcpt.obj
 0001:00011ec0       ??0__non_rtti_object@std@@QAE@ABV01@@Z 00412ec0 f   LIBCMTD:stdexcpt.obj
 0001:00011ef0       ??1__non_rtti_object@std@@UAE@XZ 00412ef0 f   LIBCMTD:stdexcpt.obj
 0001:00011f10       _strlen                    00412f10 f   LIBCMTD:strlen.obj
 0001:00011fa0       _free                      00412fa0 f   LIBCMTD:dbgfree.obj
 0001:00011fc0       _memcpy_s                  00412fc0 f   LIBCMTD:memcpy_s.obj
 0001:00012150       _memmove_s                 00413150 f   LIBCMTD:memmove_s.obj
 0001:000122b0       __ftol2_sse                004132b0 f   LIBCMTD:ftol2.obj
 0001:000122b9       __ftol2_pentium4           004132b9 f   LIBCMTD:ftol2.obj
 0001:000122cc       __ftol2_sse_excpt          004132cc f   LIBCMTD:ftol2.obj
 0001:000122e6       __ftol2                    004132e6 f   LIBCMTD:ftol2.obj
 0001:00012360       _floor                     00413360 f   LIBCMTD:_floor_pentium4_.obj
 0001:000123a0       __floor_pentium4           004133a0 f   LIBCMTD:_floor_pentium4_.obj
 0001:00012490       ??_U@YAPAXI@Z              00413490 f   LIBCMTD:new2.obj
 0001:000124b0       _srand                     004134b0 f   LIBCMTD:rand.obj
 0001:000124d0       _rand                      004134d0 f   LIBCMTD:rand.obj
 0001:00012510       __time64                   00413510 f   LIBCMTD:time64.obj
 0001:00012590       __initp_misc_invarg        00413590 f   LIBCMTD:invarg.obj
 0001:000125a0       __invalid_parameter        004135a0 f   LIBCMTD:invarg.obj
 0001:00012610       __invoke_watson            00413610 f   LIBCMTD:invarg.obj
 0001:00012760       __set_invalid_parameter_handler 00413760 f   LIBCMTD:invarg.obj
 0001:000127b0       __get_invalid_parameter_handler 004137b0 f   LIBCMTD:invarg.obj
 0001:000127e0       ?_invalid_parameter@@YAXPBG00II@Z 004137e0 f   LIBCMTD:invarg.obj
 0001:00012810       ?_invoke_watson@@YAXPBG00II@Z 00413810 f   LIBCMTD:invarg.obj
 0001:00012840       __CrtSetReportHookW2       00413840 f   LIBCMTD:dbgrptw.obj
 0001:00012b60       __CrtDbgReportW            00413b60 f   LIBCMTD:dbgrptw.obj
 0001:00012ba0       __CrtDbgReportWV           00413ba0 f i LIBCMTD:dbgrptw.obj
 0001:00012bd0       ___crtMessageWindowW       00413bd0 f   LIBCMTD:dbgrptw.obj
 0001:00012fd0       __invoke_watson_if_error   00413fd0 f i LIBCMTD:dbgrptw.obj
 0001:00013000       __invoke_watson_if_oneof   00414000 f i LIBCMTD:dbgrptw.obj
 0001:00013050       ?_CrtDbgReportW@@YAHHPBGH00ZZ 00414050 f   LIBCMTD:dbgrptw.obj
 0001:00013090       _WinMainCRTStartup         00414090 f   LIBCMTD:wincrt0.obj
 0001:00013340       __VEC_memzero              00414340 f   LIBCMTD:p4_memset.obj
 0001:00013430       __get_sse2_info            00414430 f   LIBCMTD:cpu_disp.obj
 0001:00013560       ___sse2_available_init     00414560 f   LIBCMTD:cpu_disp.obj
 0001:00013580       __setdefaultprecision      00414580 f   LIBCMTD:fp8.obj
 0001:000135c0       __ms_p5_test_fdiv          004145c0 f   LIBCMTD:_testfdiv_.obj
 0001:00013610       __ms_p5_mp_test_fdiv       00414610 f   LIBCMTD:_testfdiv_.obj
 0001:00013660       __forcdecpt                00414660 f   LIBCMTD:cvt.obj
 0001:00013680       __forcdecpt_l              00414680 f   LIBCMTD:cvt.obj
 0001:00013740       ??0_LocaleUpdate@@QAE@PAUlocaleinfo_struct@@@Z 00414740 f i LIBCMTD:cvt.obj
 0001:00013820       ??1_LocaleUpdate@@QAE@XZ   00414820 f i LIBCMTD:cvt.obj
 0001:00013850       ?GetLocaleT@_LocaleUpdate@@QAEPAUlocaleinfo_struct@@XZ 00414850 f i LIBCMTD:cvt.obj
 0001:00013860       __cropzeros                00414860 f   LIBCMTD:cvt.obj
 0001:00013880       __cropzeros_l              00414880 f   LIBCMTD:cvt.obj
 0001:00013990       __positive                 00414990 f   LIBCMTD:cvt.obj
 0001:000139c0       __fassign_l                004149c0 f   LIBCMTD:cvt.obj
 0001:00013a20       __fassign                  00414a20 f   LIBCMTD:cvt.obj
 0001:00013a40       __cftoe_l                  00414a40 f   LIBCMTD:cvt.obj
 0001:00013f90       __cftoe                    00414f90 f   LIBCMTD:cvt.obj
 0001:00013fc0       __cftoa_l                  00414fc0 f   LIBCMTD:cvt.obj
 0001:000147a0       ?strrchr@@YAPADPADH@Z      004157a0 f i LIBCMTD:cvt.obj
 0001:000147c0       __cftoa                    004157c0 f   LIBCMTD:cvt.obj
 0001:000147f0       __cftof_l                  004157f0 f   LIBCMTD:cvt.obj
 0001:00014c00       __cftof                    00415c00 f   LIBCMTD:cvt.obj
 0001:00014c30       __cftog_l                  00415c30 f   LIBCMTD:cvt.obj
 0001:00014e60       __cftog                    00415e60 f   LIBCMTD:cvt.obj
 0001:00014e90       __cfltcvt_l                00415e90 f   LIBCMTD:cvt.obj
 0001:00014f50       __cfltcvt                  00415f50 f   LIBCMTD:cvt.obj
 0001:00014fb0       __initp_misc_cfltcvt_tab   00415fb0 f   LIBCMTD:cmiscdat.obj
 0001:00015000       _DebuggerKnownHandle       00416000 f   LIBCMTD:_error_.obj
 0001:000150c0       ?_RTC_Failure@@YAXPAXH@Z   004160c0 f   LIBCMTD:_error_.obj
 0001:000153d0       ?_RTC_StackFailure@@YAXPAXPBD@Z 004163d0 f   LIBCMTD:_error_.obj
 0001:000154d0       ?_RTC_AllocaFailure@@YAXPAXPAU_RTC_ALLOCA_NODE@@H@Z 004164d0 f   LIBCMTD:_error_.obj
 0001:00015680       __RTC_UninitUse            00416680 f   LIBCMTD:_error_.obj
 0001:00015770       __RTC_NumErrors            00416770 f   LIBCMTD:_userapi_.obj
 0001:00015780       __RTC_GetErrDesc           00416780 f   LIBCMTD:_userapi_.obj
 0001:000157a0       __RTC_SetErrorType         004167a0 f   LIBCMTD:_userapi_.obj
 0001:000157d0       __RTC_SetErrorFunc         004167d0 f   LIBCMTD:_userapi_.obj
 0001:000157f0       __RTC_SetErrorFuncW        004167f0 f   LIBCMTD:_userapi_.obj
 0001:00015810       ?_RTC_GetErrorFunc@@YAP6AHHPBDH00ZZPBX@Z 00416810 f   LIBCMTD:_userapi_.obj
 0001:00015820       ?_RTC_GetErrorFuncW@@YAP6AHHPB_WH00ZZPBX@Z 00416820 f   LIBCMTD:_userapi_.obj
 0001:00015830       __chkesp                   00416830 f   LIBCMTD:chkesp.obj
 0001:00015870       __CRT_RTC_INIT             00416870 f   LIBCMTD:chkesp.obj
 0001:00015880       __CRT_RTC_INITW            00416880 f   LIBCMTD:chkesp.obj
 0001:00015890       __VEC_memcpy               00416890 f   LIBCMTD:p4_memcpy.obj
 0001:00015a10       __aulldiv                  00416a10 f   LIBCMTD:ulldiv.obj
 0001:00015a80       __aullrem                  00416a80 f   LIBCMTD:ullrem.obj
 0001:00015b00       ___InternalCxxFrameHandler 00416b00 f   LIBCMTD:frame.obj
 0001:00016100       ??0bad_exception@std@@QAE@PBD@Z 00417100 f i LIBCMTD:frame.obj
 0001:00016130       ??1bad_exception@std@@UAE@XZ 00417130 f i LIBCMTD:frame.obj
 0001:00016150       ??_Ebad_exception@std@@UAEPAXI@Z 00417150 f i LIBCMTD:frame.obj
 0001:00016150       ??_Gbad_exception@std@@UAEPAXI@Z 00417150 f i LIBCMTD:frame.obj
 0001:00016180       ??0bad_exception@std@@QAE@ABV01@@Z 00417180 f i LIBCMTD:frame.obj
 0001:00016330       ___TypeMatch               00417330 f   LIBCMTD:frame.obj
 0001:000163e0       ___FrameUnwindFilter       004173e0 f   LIBCMTD:frame.obj
 0001:00016460       ___FrameUnwindToState      00417460 f   LIBCMTD:frame.obj
 0001:000169a0       ___BuildCatchObjectHelper  004179a0 f   LIBCMTD:frame.obj
 0001:00016c10       ___BuildCatchObject        00417c10 f   LIBCMTD:frame.obj
 0001:00016d20       ___DestructExceptionObject 00417d20 f   LIBCMTD:frame.obj
 0001:00016dd0       ___AdjustPointer           00417dd0 f   LIBCMTD:frame.obj
 0001:00016e20       ?__uncaught_exception@@YA_NXZ 00417e20 f   LIBCMTD:frame.obj
 0001:00016e40       ___CxxExceptionFilter      00417e40 f   LIBCMTD:frame.obj
 0001:00017030       ___CxxRegisterExceptionObject 00418030 f   LIBCMTD:frame.obj
 0001:00017160       ___CxxDetectRethrow        00418160 f   LIBCMTD:frame.obj
 0001:000171f0       ___CxxUnregisterExceptionObject 004181f0 f   LIBCMTD:frame.obj
 0001:00017370       ___CxxQueryExceptionSize   00418370 f   LIBCMTD:frame.obj
 0001:00017380       ___CxxCallUnwindDtor       00418380 f   LIBCMTD:frame.obj
 0001:00017400       ___CxxCallUnwindDelDtor    00418400 f   LIBCMTD:frame.obj
 0001:00017480       ___CxxCallUnwindStdDelDtor 00418480 f   LIBCMTD:frame.obj
 0001:00017500       ___CxxCallUnwindVecDtor    00418500 f   LIBCMTD:frame.obj
 0001:00017730       ?_is_exception_typeof@@YAHABVtype_info@@PAU_EXCEPTION_POINTERS@@@Z 00418730 f   LIBCMTD:frame.obj
 0001:00017810       __CallSettingFrame@12      00418810 f   LIBCMTD:lowhelpr.obj
 0001:00017837       __NLG_Return               00418837     LIBCMTD:lowhelpr.obj
 0001:00017860       __encode_pointer           00418860 f   LIBCMTD:tidtable.obj
 0001:00017900       __crt_wait_module_handle   00418900 f i LIBCMTD:tidtable.obj
 0001:00017930       __encoded_null             00418930 f   LIBCMTD:tidtable.obj
 0001:00017950       __decode_pointer           00418950 f   LIBCMTD:tidtable.obj
 0001:000179f0       ___crtTlsAlloc@4           004189f0 f   LIBCMTD:tidtable.obj
 0001:00017a00       ___fls_getvalue@4          00418a00 f   LIBCMTD:tidtable.obj
 0001:00017a20       ___get_flsindex            00418a20 f   LIBCMTD:tidtable.obj
 0001:00017a30       ___set_flsgetvalue         00418a30 f   LIBCMTD:tidtable.obj
 0001:00017a80       ___fls_setvalue@8          00418a80 f   LIBCMTD:tidtable.obj
 0001:00017ab0       __mtinit                   00418ab0 f   LIBCMTD:tidtable.obj
 0001:00017cc0       __mtterm                   00418cc0 f   LIBCMTD:tidtable.obj
 0001:00017d20       __initptd                  00418d20 f   LIBCMTD:tidtable.obj
 0001:00017e80       __getptd_noexit            00418e80 f   LIBCMTD:tidtable.obj
 0001:00017f40       __getptd                   00418f40 f   LIBCMTD:tidtable.obj
 0001:00017f70       __freefls@4                00418f70 f   LIBCMTD:tidtable.obj
 0001:00018180       __freeptd                  00419180 f   LIBCMTD:tidtable.obj
 0001:00018200       ___threadid                00419200 f   LIBCMTD:tidtable.obj
 0001:00018210       ___threadhandle            00419210 f   LIBCMTD:tidtable.obj
 0001:00018220       __initp_eh_hooks           00419220 f   LIBCMTD:hooks.obj
 0001:00018240       ?terminate@@YAXXZ          00419240 f   LIBCMTD:hooks.obj
 0001:000182c0       ?unexpected@@YAXXZ         004192c0 f   LIBCMTD:hooks.obj
 0001:000182f0       ?_inconsistency@@YAXXZ     004192f0 f   LIBCMTD:hooks.obj
 0001:00018380       ___report_gsfailure        00419380 f   LIBCMTD:gs_report.obj
 0001:00018490       __mtinitlocks              00419490 f   LIBCMTD:mlock.obj
 0001:00018520       __mtdeletelocks            00419520 f   LIBCMTD:mlock.obj
 0001:000185e0       __mtinitlocknum            004195e0 f   LIBCMTD:mlock.obj
 0001:00018730       __lock                     00419730 f   LIBCMTD:mlock.obj
 0001:00018770       __unlock                   00419770 f   LIBCMTD:mlock.obj
 0001:00018790       __lockerr_exit             00419790 f   LIBCMTD:mlock.obj
 0001:000187b0       __malloc_dbg               004197b0 f   LIBCMTD:dbgheap.obj
 0001:000187e0       __nh_malloc                004197e0 f   LIBCMTD:dbgheap.obj
 0001:00018800       __nh_malloc_dbg            00419800 f   LIBCMTD:dbgheap.obj
 0001:000188d0       __heap_alloc               004198d0 f   LIBCMTD:dbgheap.obj
 0001:00018ca0       __heap_alloc_dbg           00419ca0 f   LIBCMTD:dbgheap.obj
 0001:00018d00       __calloc_dbg_impl          00419d00 f   LIBCMTD:dbgheap.obj
 0001:00018dd0       __calloc_dbg               00419dd0 f   LIBCMTD:dbgheap.obj
 0001:00018e30       __recalloc                 00419e30 f   LIBCMTD:dbgheap.obj
 0001:00018e60       __realloc_dbg              00419e60 f   LIBCMTD:dbgheap.obj
 0001:00019500       __recalloc_dbg             0041a500 f   LIBCMTD:dbgheap.obj
 0001:00019600       __expand                   0041a600 f   LIBCMTD:dbgheap.obj
 0001:00019630       __expand_dbg               0041a630 f   LIBCMTD:dbgheap.obj
 0001:00019740       __free_nolock              0041a740 f   LIBCMTD:dbgheap.obj
 0001:00019760       __free_dbg                 0041a760 f   LIBCMTD:dbgheap.obj
 0001:000197e0       __free_dbg_nolock          0041a7e0 f   LIBCMTD:dbgheap.obj
 0001:00019cc0       __msize                    0041acc0 f   LIBCMTD:dbgheap.obj
 0001:00019ce0       __msize_dbg                0041ace0 f   LIBCMTD:dbgheap.obj
 0001:00019ed0       __CrtSetBreakAlloc         0041aed0 f   LIBCMTD:dbgheap.obj
 0001:00019ef0       __CrtSetDbgBlockType       0041aef0 f   LIBCMTD:dbgheap.obj
 0001:00019fe0       __CrtSetAllocHook          0041afe0 f   LIBCMTD:dbgheap.obj
 0001:0001a000       __CrtGetAllocHook          0041b000 f   LIBCMTD:dbgheap.obj
 0001:0001a060       __CrtCheckMemory           0041b060 f   LIBCMTD:dbgheap.obj
 0001:0001a4c0       __CrtSetDbgFlag            0041b4c0 f   LIBCMTD:dbgheap.obj
 0001:0001a610       __CrtDoForAllClientObjects 0041b610 f   LIBCMTD:dbgheap.obj
 0001:0001a730       __CrtIsValidPointer        0041b730 f   LIBCMTD:dbgheap.obj
 0001:0001a740       __CrtIsValidHeapPointer    0041b740 f   LIBCMTD:dbgheap.obj
 0001:0001a7e0       __CrtIsMemoryBlock         0041b7e0 f   LIBCMTD:dbgheap.obj
 0001:0001a950       __CrtReportBlockType       0041b950 f   LIBCMTD:dbgheap.obj
 0001:0001a980       __CrtSetDumpClient         0041b980 f   LIBCMTD:dbgheap.obj
 0001:0001a9a0       __CrtGetDumpClient         0041b9a0 f   LIBCMTD:dbgheap.obj
 0001:0001a9b0       __CrtMemCheckpoint         0041b9b0 f   LIBCMTD:dbgheap.obj
 0001:0001abd0       __CrtMemDifference         0041bbd0 f   LIBCMTD:dbgheap.obj
 0001:0001adf0       __CrtMemDumpAllObjectsSince 0041bdf0 f   LIBCMTD:dbgheap.obj
 0001:0001b2e0       __CrtDumpMemoryLeaks       0041c2e0 f   LIBCMTD:dbgheap.obj
 0001:0001b350       __CrtMemDumpStatistics     0041c350 f   LIBCMTD:dbgheap.obj
 0001:0001b460       __aligned_malloc           0041c460 f   LIBCMTD:dbgheap.obj
 0001:0001b480       __aligned_malloc_dbg       0041c480 f   LIBCMTD:dbgheap.obj
 0001:0001b4b0       __aligned_realloc          0041c4b0 f   LIBCMTD:dbgheap.obj
 0001:0001b4e0       __aligned_recalloc         0041c4e0 f   LIBCMTD:dbgheap.obj
 0001:0001b510       __aligned_realloc_dbg      0041c510 f   LIBCMTD:dbgheap.obj
 0001:0001b540       __aligned_recalloc_dbg     0041c540 f   LIBCMTD:dbgheap.obj
 0001:0001b570       __aligned_offset_malloc    0041c570 f   LIBCMTD:dbgheap.obj
 0001:0001b590       __aligned_offset_malloc_dbg 0041c590 f   LIBCMTD:dbgheap.obj
 0001:0001b730       __aligned_offset_realloc   0041c730 f   LIBCMTD:dbgheap.obj
 0001:0001b760       __aligned_offset_recalloc  0041c760 f   LIBCMTD:dbgheap.obj
 0001:0001b790       __aligned_offset_realloc_dbg 0041c790 f   LIBCMTD:dbgheap.obj
 0001:0001ba60       __aligned_offset_recalloc_dbg 0041ca60 f   LIBCMTD:dbgheap.obj
 0001:0001bb70       __aligned_free             0041cb70 f   LIBCMTD:dbgheap.obj
 0001:0001bb90       __aligned_free_dbg         0041cb90 f   LIBCMTD:dbgheap.obj
 0001:0001bc40       __CrtSetDebugFillThreshold 0041cc40 f   LIBCMTD:dbgheap.obj
 0001:0001bc60       __CrtSetCheckCount         0041cc60 f   LIBCMTD:dbgheap.obj
 0001:0001bc80       __CrtGetCheckCount         0041cc80 f   LIBCMTD:dbgheap.obj
 0001:0001bc90       __aligned_msize            0041cc90 f   LIBCMTD:dbgheap.obj
 0001:0001bcb0       __aligned_msize_dbg        0041ccb0 f   LIBCMTD:dbgheap.obj
 0001:0001bdc0       __except_handler4          0041cdc0 f   LIBCMTD:chandler4.obj
 0001:0001bfe0       __onexit                   0041cfe0 f   LIBCMTD:onexit.obj
 0001:0001c1b0       _atexit                    0041d1b0 f   LIBCMTD:onexit.obj
 0001:0001c1d0       ___onexitinit              0041d1d0 f   LIBCMTD:onexit.obj
 0001:0001c230       __initp_heap_handler       0041d230 f   LIBCMTD:handler.obj
 0001:0001c240       ?_set_new_handler@@YAP6AHI@ZP6AHI@Z@Z 0041d240 f   LIBCMTD:handler.obj
 0001:0001c290       ?_set_new_handler@@YAP6AHI@ZH@Z 0041d290 f   LIBCMTD:handler.obj
 0001:0001c2d0       ?_query_new_handler@@YAP6AHI@ZXZ 0041d2d0 f   LIBCMTD:handler.obj
 0001:0001c2f0       __callnewh                 0041d2f0 f   LIBCMTD:handler.obj
 0001:0001c330       _malloc                    0041d330 f   LIBCMTD:dbgmalloc.obj
 0001:0001c360       __flsbuf                   0041d360 f   LIBCMTD:_flsbuf.obj
 0001:0001c620       __output_l                 0041d620 f   LIBCMTD:output.obj
 0001:0001da50       _get_int_arg               0041ea50 f i LIBCMTD:output.obj
 0001:0001da70       _get_int64_arg             0041ea70 f i LIBCMTD:output.obj
 0001:0001da90       _get_short_arg             0041ea90 f i LIBCMTD:output.obj
 0001:0001dab0       __dosmaperr                0041eab0 f   LIBCMTD:dosmap.obj
 0001:0001dae0       __get_errno_from_oserr     0041eae0 f   LIBCMTD:dosmap.obj
 0001:0001db60       __set_errno                0041eb60 f   LIBCMTD:dosmap.obj
 0001:0001db90       __get_errno                0041eb90 f   LIBCMTD:dosmap.obj
 0001:0001dc10       __set_doserrno             0041ec10 f   LIBCMTD:dosmap.obj
 0001:0001dc40       __get_doserrno             0041ec40 f   LIBCMTD:dosmap.obj
 0001:0001dcc0       __errno                    0041ecc0 f   LIBCMTD:dosmap.obj
 0001:0001dcf0       ___doserrno                0041ecf0 f   LIBCMTD:dosmap.obj
 0001:0001dd20       __vsprintf_l               0041ed20 f   LIBCMTD:vsprintf.obj
 0001:0001dea0       _vsprintf                  0041eea0 f   LIBCMTD:vsprintf.obj
 0001:0001dec0       __vscprintf_helper         0041eec0 f   LIBCMTD:vsprintf.obj
 0001:0001df80       __vscprintf                0041ef80 f   LIBCMTD:vsprintf.obj
 0001:0001dfa0       __vscprintf_l              0041efa0 f   LIBCMTD:vsprintf.obj
 0001:0001dfc0       __vscprintf_p              0041efc0 f   LIBCMTD:vsprintf.obj
 0001:0001dfe0       __vscprintf_p_l            0041efe0 f   LIBCMTD:vsprintf.obj
 0001:0001e000       __vsnprintf_helper         0041f000 f   LIBCMTD:vsnprnc.obj
 0001:0001e1d0       __vsnprintf_c              0041f1d0 f   LIBCMTD:vsnprnc.obj
 0001:0001e220       __vsnprintf_c_l            0041f220 f   LIBCMTD:vsnprnc.obj
 0001:0001e270       __vsprintf_s_l             0041f270 f   LIBCMTD:vsnprnc.obj
 0001:0001e4e0       _vsprintf_s                0041f4e0 f   LIBCMTD:vsnprnc.obj
 0001:0001e510       __vsnprintf_s_l            0041f510 f   LIBCMTD:vsnprnc.obj
 0001:0001e8b0       __vsnprintf_s              0041f8b0 f   LIBCMTD:vsnprnc.obj
 0001:0001e8e0       __vsprintf_p               0041f8e0 f   LIBCMTD:vsnprnc.obj
 0001:0001e930       __vsprintf_p_l             0041f930 f   LIBCMTD:vsnprnc.obj
 0001:0001e980       ?_Type_info_dtor@type_info@@CAXPAV1@@Z 0041f980 f   LIBCMTD:typname.obj
 0001:0001ea90       ?_Name_base@type_info@@CAPBDPBV1@PAU__type_info_node@@@Z 0041fa90 f   LIBCMTD:typname.obj
 0001:0001ec30       ?_Type_info_dtor_internal@type_info@@CAXPAV1@@Z 0041fc30 f   LIBCMTD:typname.obj
 0001:0001ed40       ___unDNameHelper           0041fd40 f   LIBCMTD:typname.obj
 0001:0001ed80       ?_Name_base_internal@type_info@@CAPBDPBV1@PAU__type_info_node@@@Z 0041fd80 f   LIBCMTD:typname.obj
 0001:0001ef40       ___clean_type_info_names_internal 0041ff40 f   LIBCMTD:typname.obj
 0001:0001f000       _strcmp                    00420000 f   LIBCMTD:strcmp.obj
 0001:0001f090       _strcpy_s                  00420090 f   LIBCMTD:strcpy_s.obj
 0001:0001f370       _memmove                   00420370 f   LIBCMTD:memmove.obj
 0001:0001f6e0       ___libm_setusermatherr     004206e0 f   LIBCMTD:_libm_error_.obj
 0001:0001f720       ___libm_error_support      00420720 f   LIBCMTD:_libm_error_.obj
 0001:00020260       __sse2_mathfcns_init       00421260 f   LIBCMTD:_mathfcns_.obj
 0001:00020280       __set_SSE2_enable          00421280 f   LIBCMTD:_mathfcns_.obj
 0001:000202a0       __floor_default            004212a0 f   LIBCMTD:_floor_.obj
 0001:000203e0       __CrtDefaultAllocHook      004213e0 f   LIBCMTD:dbghook.obj
 0001:000203f0       __crt_debugger_hook        004213f0 f   LIBCMTD:dbghook.obj
 0001:00020410       __CrtDbgBreak              00421410 f   LIBCMTD:dbgrptt.obj
 0001:00020420       __CrtSetReportMode         00421420 f   LIBCMTD:dbgrptt.obj
 0001:00020560       __CrtSetReportFile         00421560 f   LIBCMTD:dbgrptt.obj
 0001:00020660       __CrtSetReportHook         00421660 f   LIBCMTD:dbgrptt.obj
 0001:00020680       __CrtGetReportHook         00421680 f   LIBCMTD:dbgrptt.obj
 0001:00020690       __VCrtDbgReportA           00421690 f   LIBCMTD:dbgrptt.obj
 0001:00020ec0       __VCrtDbgReportW           00421ec0 f   LIBCMTD:dbgrptt.obj
 0001:000217f0       __crt_waiting_on_module_handle 004227f0 f   LIBCMTD:crt0dat.obj
 0001:00021850       __cinit                    00422850 f   LIBCMTD:crt0dat.obj
 0001:000218f0       _exit                      004228f0 f   LIBCMTD:crt0dat.obj
 0001:00021910       __exit                     00422910 f   LIBCMTD:crt0dat.obj
 0001:00021930       __cexit                    00422930 f   LIBCMTD:crt0dat.obj
 0001:00021950       __c_exit                   00422950 f   LIBCMTD:crt0dat.obj
 0001:00021970       __amsg_exit                00422970 f   LIBCMTD:crt0dat.obj
 0001:000219b0       ___freeCrtMemory           004229b0 f   LIBCMTD:crt0dat.obj
 0001:00021d00       ___crtCorExitProcess       00422d00 f   LIBCMTD:crt0dat.obj
 0001:00021d40       ___crtExitProcess          00422d40 f   LIBCMTD:crt0dat.obj
 0001:00021d60       __lockexit                 00422d60 f   LIBCMTD:crt0dat.obj
 0001:00021d80       __unlockexit               00422d80 f   LIBCMTD:crt0dat.obj
 0001:00021da0       __init_pointers            00422da0 f   LIBCMTD:crt0dat.obj
 0001:00021e60       __initterm_e               00422e60 f   LIBCMTD:crt0dat.obj
 0001:00021ea0       __get_wpgmptr              00422ea0 f   LIBCMTD:crt0dat.obj
 0001:00021f90       __get_pgmptr               00422f90 f   LIBCMTD:crt0dat.obj
 0001:00022080       __initp_misc_winsig        00423080 f   LIBCMTD:winsig.obj
 0001:000220b0       _signal                    004230b0 f   LIBCMTD:winsig.obj
 0001:00022550       _raise                     00423550 f   LIBCMTD:winsig.obj
 0001:000228c0       ___get_sigabrt             004238c0 f   LIBCMTD:winsig.obj
 0001:000228e0       ___fpecode                 004238e0 f   LIBCMTD:winsig.obj
 0001:000228f0       ___pxcptinfoptrs           004238f0 f   LIBCMTD:winsig.obj
 0001:00022900       ___crtMessageBoxW          00423900 f   LIBCMTD:crtmboxw.obj
 0001:00022b20       __swprintf                 00423b20 f   LIBCMTD:swprintf.obj
 0001:00022cf0       ___swprintf_l              00423cf0 f   LIBCMTD:swprintf.obj
 0001:00022d20       _swprintf_s                00423d20 f   LIBCMTD:swprintf.obj
 0001:00022d50       __snwprintf_s              00423d50 f   LIBCMTD:swprintf.obj
 0001:00022d80       __swprintf_p               00423d80 f   LIBCMTD:swprintf.obj
 0001:00022db0       __swprintf_s_l             00423db0 f   LIBCMTD:swprintf.obj
 0001:00022de0       __snwprintf_s_l            00423de0 f   LIBCMTD:swprintf.obj
 0001:00022e10       __swprintf_p_l             00423e10 f   LIBCMTD:swprintf.obj
 0001:00022e40       __scwprintf                00423e40 f   LIBCMTD:swprintf.obj
 0001:00022e60       __scwprintf_p              00423e60 f   LIBCMTD:swprintf.obj
 0001:00022e80       __scwprintf_l              00423e80 f   LIBCMTD:swprintf.obj
 0001:00022eb0       __scwprintf_p_l            00423eb0 f   LIBCMTD:swprintf.obj
 0001:00022ee0       _wcslen                    00423ee0 f   LIBCMTD:wcslen.obj
 0001:00022f10       _wcscpy_s                  00423f10 f   LIBCMTD:wcscpy_s.obj
 0001:000231f0       __alloca_probe             004241f0     LIBCMTD:chkstk.obj
 0001:000231f0       __chkstk                   004241f0 f   LIBCMTD:chkstk.obj
 0001:00023220       ?__CxxUnhandledExceptionFilter@@YGJPAU_EXCEPTION_POINTERS@@@Z 00424220 f   LIBCMTD:unhandld.obj
 0001:00023290       ___CxxSetUnhandledExceptionFilter 00424290 f   LIBCMTD:unhandld.obj
 0001:000232b0       ___security_init_cookie    004242b0 f   LIBCMTD:gs_support.obj
 0001:00023390       __initp_misc_winxfltr      00424390 f   LIBCMTD:winxfltr.obj
 0001:000233a0       ___CppXcptFilter           004243a0 f   LIBCMTD:winxfltr.obj
 0001:000233d0       __XcptFilter               004243d0 f   LIBCMTD:winxfltr.obj
 0001:00023600       __wincmdln                 00424600 f   LIBCMTD:wincmdln.obj
 0001:000236d0       __setenvp                  004246d0 f   LIBCMTD:stdenvp.obj
 0001:00023870       __setargv                  00424870 f   LIBCMTD:stdargv.obj
 0001:00023990       __set_pgmptr               00424990 f i LIBCMTD:stdargv.obj
 0001:00023d00       ___crtGetEnvironmentStringsA 00424d00 f   LIBCMTD:a_env.obj
 0001:00023f20       __ioinit                   00424f20 f   LIBCMTD:ioinit.obj
 0001:000243c0       __ioterm                   004253c0 f   LIBCMTD:ioinit.obj
 0001:00024460       __RTC_Initialize           00425460 f   LIBCMTD:_initsect_.obj
 0001:00024490       __RTC_Terminate            00425490 f   LIBCMTD:_initsect_.obj
 0001:000244c0       ___heap_select             004254c0 f   LIBCMTD:heapinit.obj
 0001:000244e0       __heap_init                004254e0 f   LIBCMTD:heapinit.obj
 0001:00024560       __heap_term                00425560 f   LIBCMTD:heapinit.obj
 0001:00024600       __get_heap_handle          00425600 f   LIBCMTD:heapinit.obj
 0001:00024640       __FF_MSGBANNER             00425640 f   LIBCMTD:crt0msg.obj
 0001:00024690       __NMSG_WRITE               00425690 f   LIBCMTD:crt0msg.obj
 0001:00024930       __GET_RTERRMSG             00425930 f   LIBCMTD:crt0msg.obj
 0001:00024980       __controlfp_s              00425980 f   LIBCMTD:_contrlfp_.obj
 0001:00024a60       __isalpha_l                00425a60 f i LIBCMTD:_ctype.obj
 0001:00024af0       _isalpha                   00425af0 f i LIBCMTD:_ctype.obj
 0001:00024b30       __isupper_l                00425b30 f i LIBCMTD:_ctype.obj
 0001:00024bb0       _isupper                   00425bb0 f i LIBCMTD:_ctype.obj
 0001:00024be0       __islower_l                00425be0 f i LIBCMTD:_ctype.obj
 0001:00024c60       _islower                   00425c60 f i LIBCMTD:_ctype.obj
 0001:00024c90       __isdigit_l                00425c90 f i LIBCMTD:_ctype.obj
 0001:00024d10       _isdigit                   00425d10 f i LIBCMTD:_ctype.obj
 0001:00024d40       __isxdigit_l               00425d40 f i LIBCMTD:_ctype.obj
 0001:00024dd0       _isxdigit                  00425dd0 f i LIBCMTD:_ctype.obj
 0001:00024e10       __isspace_l                00425e10 f i LIBCMTD:_ctype.obj
 0001:00024e90       _isspace                   00425e90 f i LIBCMTD:_ctype.obj
 0001:00024ec0       __ispunct_l                00425ec0 f i LIBCMTD:_ctype.obj
 0001:00024f40       _ispunct                   00425f40 f i LIBCMTD:_ctype.obj
 0001:00024f70       __isalnum_l                00425f70 f i LIBCMTD:_ctype.obj
 0001:00025000       _isalnum                   00426000 f i LIBCMTD:_ctype.obj
 0001:00025040       __isprint_l                00426040 f i LIBCMTD:_ctype.obj
 0001:000250d0       _isprint                   004260d0 f i LIBCMTD:_ctype.obj
 0001:00025110       __isgraph_l                00426110 f i LIBCMTD:_ctype.obj
 0001:000251a0       _isgraph                   004261a0 f i LIBCMTD:_ctype.obj
 0001:000251e0       __iscntrl_l                004261e0 f i LIBCMTD:_ctype.obj
 0001:00025260       _iscntrl                   00426260 f i LIBCMTD:_ctype.obj
 0001:00025290       ___isascii                 00426290 f i LIBCMTD:_ctype.obj
 0001:000252b0       ___toascii                 004262b0 f i LIBCMTD:_ctype.obj
 0001:000252c0       __iscsymf_l                004262c0 f i LIBCMTD:_ctype.obj
 0001:00025300       ___iscsymf                 00426300 f i LIBCMTD:_ctype.obj
 0001:00025340       __iscsym_l                 00426340 f i LIBCMTD:_ctype.obj
 0001:00025380       ___iscsym                  00426380 f i LIBCMTD:_ctype.obj
 0001:000253c0       __tolower                  004263c0 f   LIBCMTD:tolower.obj
 0001:000253d0       __tolower_l                004263d0 f   LIBCMTD:tolower.obj
 0001:000255b0       _tolower                   004265b0 f   LIBCMTD:tolower.obj
 0001:00025600       ___updatetmbcinfo          00426600 f   LIBCMTD:mbctype.obj
 0001:00025710       __setmbcp                  00426710 f   LIBCMTD:mbctype.obj
 0001:00025ac0       __setmbcp_nolock           00426ac0 f   LIBCMTD:mbctype.obj
 0001:000262b0       __getmbcp                  004272b0 f   LIBCMTD:mbctype.obj
 0001:00026320       ___initmbctable            00427320 f   LIBCMTD:mbctype.obj
 0001:00026350       ____setlc_active_func      00427350 f   LIBCMTD:setlocal.obj
 0001:00026360       ____unguarded_readlc_active_add_func 00427360 f   LIBCMTD:setlocal.obj
 0001:00026370       ___freetlocinfo            00427370 f   LIBCMTD:setlocal.obj
 0001:00026650       ___addlocaleref            00427650 f   LIBCMTD:setlocal.obj
 0001:00026770       ___removelocaleref         00427770 f   LIBCMTD:setlocal.obj
 0001:000268a0       ___updatetlocinfo          004278a0 f   LIBCMTD:setlocal.obj
 0001:000269f0       __configthreadlocale       004279f0 f   LIBCMTD:setlocal.obj
 0001:00026b00       __locterm                  00427b00 f   LIBCMTD:setlocal.obj
 0001:00026ba0       __free_locale              00427ba0 f   LIBCMTD:setlocal.obj
 0001:00026ce0       ___free_locale             00427ce0 f   LIBCMTD:setlocal.obj
 0001:00026d00       __create_locale            00427d00 f   LIBCMTD:setlocal.obj
 0001:00026f30       ___create_locale           00427f30 f   LIBCMTD:setlocal.obj
 0001:00026f50       __get_current_locale       00427f50 f   LIBCMTD:setlocal.obj
 0001:00027070       ___get_current_locale      00428070 f   LIBCMTD:setlocal.obj
 0001:00027080       _setlocale                 00428080 f   LIBCMTD:setlocal.obj
 0001:00027f90       __expandlocale             00428f90 f   LIBCMTD:setlocal.obj
 0001:00028240       ___init_dummy              00429240 f   LIBCMTD:setlocal.obj
 0001:00028250       __strcats                  00429250 f   LIBCMTD:setlocal.obj
 0001:000282d0       ___lc_strtolc              004292d0 f   LIBCMTD:setlocal.obj
 0001:000284d0       ___lc_lctostr              004294d0 f   LIBCMTD:setlocal.obj
 0001:00028570       __atodbl_l                 00429570 f   LIBCMTD:atodbl.obj
 0001:00028680       __atodbl                   00429680 f   LIBCMTD:atodbl.obj
 0001:000286a0       __atoldbl_l                004296a0 f   LIBCMTD:atodbl.obj
 0001:000287b0       __atoldbl                  004297b0 f   LIBCMTD:atodbl.obj
 0001:000287d0       __atoflt_l                 004297d0 f   LIBCMTD:atodbl.obj
 0001:000288e0       __atoflt                   004298e0 f   LIBCMTD:atodbl.obj
 0001:00028900       __fptostr                  00429900 f   LIBCMTD:_fptostr.obj
 0001:00028bb0       __fltout2                  00429bb0 f   LIBCMTD:_cfout_.obj
 0001:00028c60       ___dtold                   00429c60 f   LIBCMTD:_cfout_.obj
 0001:00028dc0       __set_output_format        00429dc0 f   LIBCMTD:outputformat.obj
 0001:00028e40       __get_output_format        00429e40 f   LIBCMTD:outputformat.obj
 0001:00028e50       __allrem                   00429e50 f   LIBCMTD:llrem.obj
 0001:00028f10       __alldiv                   00429f10 f   LIBCMTD:lldiv.obj
 0001:00028fc0       __allshl                   00429fc0 f   LIBCMTD:llshl.obj
 0001:00028fe0       __aullshr                  00429fe0 f   LIBCMTD:ullshr.obj
 0001:00029000       _strrchr                   0042a000 f   LIBCMTD:strrchr.obj
 0001:00029030       __fptrap                   0042a030 f   LIBCMTD:crt0fp.obj
 0001:00029050       ?_RTC_GetSrcLine@@YAHPAEPA_WKPAH1K@Z 0042a050 f   LIBCMTD:_pdblkup_.obj
 0001:000294f0       __CrtSetReportHook2        0042a4f0 f   LIBCMTD:dbgrpt.obj
 0001:00029810       __CrtDbgReport             0042a810 f   LIBCMTD:dbgrpt.obj
 0001:00029850       __CrtDbgReportV            0042a850 f i LIBCMTD:dbgrpt.obj
 0001:00029880       ___crtMessageWindowA       0042a880 f   LIBCMTD:dbgrpt.obj
 0001:00029c80       ?_ValidateRead@@YAHPBXI@Z  0042ac80 f   LIBCMTD:validate.obj
 0001:00029cb0       ?_ValidateWrite@@YAHPAXI@Z 0042acb0 f   LIBCMTD:validate.obj
 0001:00029ce0       ?_ValidateExecute@@YAHP6GHXZ@Z 0042ace0 f   LIBCMTD:validate.obj
 0001:00029d04       __global_unwind2           0042ad04 f   LIBCMTD:exsup.obj
 0001:00029d69       __local_unwind2            0042ad69 f   LIBCMTD:exsup.obj
 0001:00029ded       __abnormal_termination     0042aded f   LIBCMTD:exsup.obj
 0001:00029e10       __NLG_Notify1              0042ae10 f   LIBCMTD:exsup.obj
 0001:00029e19       __NLG_Notify               0042ae19 f   LIBCMTD:exsup.obj
 0001:00029e30       __NLG_Dispatch2            0042ae30     LIBCMTD:exsup.obj
 0001:00029e30       __NLG_Dispatch             0042ae30     LIBCMTD:exsup.obj
 0001:00029e38       __NLG_Call                 0042ae38 f   LIBCMTD:exsup.obj
 0001:00029e3a       __NLG_Return2              0042ae3a     LIBCMTD:exsup.obj
 0001:00029e40       _abort                     0042ae40 f   LIBCMTD:abort.obj
 0001:00029f80       __set_abort_behavior       0042af80 f   LIBCMTD:abort.obj
 0001:00029fb0       __initp_misc_initcrit      0042afb0 f   LIBCMTD:initcrit.obj
 0001:00029fc0       ___crtInitCritSecAndSpinCount 0042afc0 f   LIBCMTD:initcrit.obj
 0001:0002a070       _V6_HeapAlloc              0042b070 f   LIBCMTD:malloc.obj
 0001:0002a110       __malloc_base              0042b110 f   LIBCMTD:malloc.obj
 0001:0002a1a0       __heap_alloc_base          0042b1a0 f i LIBCMTD:malloc.obj
 0001:0002a260       __expand_base              0042b260 f   LIBCMTD:expand.obj
 0001:0002a530       __realloc_base             0042b530 f   LIBCMTD:realloc.obj
 0001:0002a8d0       __free_base                0042b8d0 f   LIBCMTD:free.obj
 0001:0002aa00       __heapchk                  0042ba00 f   LIBCMTD:heapchk.obj
 0001:0002aad0       __heapset                  0042bad0 f   LIBCMTD:heapchk.obj
 0001:0002aae0       __get_sbh_threshold        0042bae0 f   LIBCMTD:sbheap.obj
 0001:0002ab30       __set_sbh_threshold        0042bb30 f   LIBCMTD:sbheap.obj
 0001:0002acc0       __set_amblksiz             0042bcc0 f   LIBCMTD:sbheap.obj
 0001:0002add0       __get_amblksiz             0042bdd0 f   LIBCMTD:sbheap.obj
 0001:0002aec0       ___sbh_heap_init           0042bec0 f   LIBCMTD:sbheap.obj
 0001:0002af30       ___sbh_find_block          0042bf30 f   LIBCMTD:sbheap.obj
 0001:0002af90       ___sbh_verify_block        0042bf90 f   LIBCMTD:sbheap.obj
 0001:0002aff0       ___sbh_free_block          0042bff0 f   LIBCMTD:sbheap.obj
 0001:0002b5b0       ___sbh_alloc_block         0042c5b0 f   LIBCMTD:sbheap.obj
 0001:0002bad0       ___sbh_alloc_new_region    0042cad0 f   LIBCMTD:sbheap.obj
 0001:0002bbe0       ___sbh_alloc_new_group     0042cbe0 f   LIBCMTD:sbheap.obj
 0001:0002bdd0       ___sbh_resize_block        0042cdd0 f   LIBCMTD:sbheap.obj
 0001:0002c3a0       ___sbh_heapmin             0042d3a0 f   LIBCMTD:sbheap.obj
 0001:0002c4d0       ___sbh_heap_check          0042d4d0 f   LIBCMTD:sbheap.obj
 0001:0002c9c0       __chvalidator              0042d9c0 f   LIBCMTD:isctype.obj
 0001:0002ca10       __chvalidator_l            0042da10 f   LIBCMTD:isctype.obj
 0001:0002cac0       __isctype_l                0042dac0 f   LIBCMTD:isctype.obj
 0001:0002cbe0       __isctype                  0042dbe0 f   LIBCMTD:isctype.obj
 0001:0002cc18       __local_unwind4            0042dc18 f   LIBCMTD:exsup4.obj
 0001:0002ccee       __seh_longjmp_unwind4@4    0042dcee f   LIBCMTD:exsup4.obj
 0001:0002cd0a       @_EH4_CallFilterFunc@8     0042dd0a f   LIBCMTD:exsup4.obj
 0001:0002cd21       @_EH4_TransferToHandler@8  0042dd21 f   LIBCMTD:exsup4.obj
 0001:0002cd3a       @_EH4_GlobalUnwind@4       0042dd3a f   LIBCMTD:exsup4.obj
 0001:0002cd54       @_EH4_LocalUnwind@16       0042dd54 f   LIBCMTD:exsup4.obj
 0001:0002cd70       __ValidateImageBase        0042dd70 f   LIBCMTD:pesect.obj
 0001:0002cdd0       __FindPESection            0042ddd0 f   LIBCMTD:pesect.obj
 0001:0002ce50       __IsNonwritableInCurrentImage 0042de50 f   LIBCMTD:pesect.obj
 0001:0002cf70       __lseeki64                 0042df70 f   LIBCMTD:lseeki64.obj
 0001:0002d1c0       __lseeki64_nolock          0042e1c0 f   LIBCMTD:lseeki64.obj
 0001:0002d2b0       __write                    0042e2b0 f   LIBCMTD:write.obj
 0001:0002d4e0       __write_nolock             0042e4e0 f   LIBCMTD:write.obj
 0001:0002e020       __getbuf                   0042f020 f   LIBCMTD:_getbuf.obj
 0001:0002e0e0       __isatty                   0042f0e0 f   LIBCMTD:isatty.obj
 0001:0002e1c0       ___iob_func                0042f1c0 f   LIBCMTD:_file.obj
 0001:0002e1d0       ___initstdio               0042f1d0 f   LIBCMTD:_file.obj
 0001:0002e320       ___endstdio                0042f320 f   LIBCMTD:_file.obj
 0001:0002e350       __lock_file                0042f350 f   LIBCMTD:_file.obj
 0001:0002e3b0       __lock_file2               0042f3b0 f   LIBCMTD:_file.obj
 0001:0002e3f0       __unlock_file              0042f3f0 f   LIBCMTD:_file.obj
 0001:0002e450       __unlock_file2             0042f450 f   LIBCMTD:_file.obj
 0001:0002e490       __fileno                   0042f490 f   LIBCMTD:fileno.obj
 0001:0002e510       _printf                    0042f510 f   LIBCMTD:printf.obj
 0001:0002e650       __printf_l                 0042f650 f   LIBCMTD:printf.obj
 0001:0002e680       __printf_s_l               0042f680 f   LIBCMTD:printf.obj
 0001:0002e6b0       _printf_s                  0042f6b0 f   LIBCMTD:printf.obj
 0001:0002e6e0       __printf_p_l               0042f6e0 f   LIBCMTD:printf.obj
 0001:0002e710       __printf_p                 0042f710 f   LIBCMTD:printf.obj
 0001:0002e740       __set_printf_count_output  0042f740 f   LIBCMTD:printf.obj
 0001:0002e790       __get_printf_count_output  0042f790 f   LIBCMTD:printf.obj
 0001:0002e7b0       __wctomb_s_l               0042f7b0 f   LIBCMTD:wctomb.obj
 0001:0002eab0       _wctomb_s                  0042fab0 f   LIBCMTD:wctomb.obj
 0001:0002eae0       __wctomb_l                 0042fae0 f   LIBCMTD:wctomb.obj
 0001:0002eb60       _wctomb                    0042fb60 f   LIBCMTD:wctomb.obj
 0001:0002ebb0       __isleadbyte_l             0042fbb0 f i LIBCMTD:_wctype.obj
 0001:0002ec00       _isleadbyte                0042fc00 f i LIBCMTD:_wctype.obj
 0001:0002ec20       __iswalpha_l               0042fc20 f i LIBCMTD:_wctype.obj
 0001:0002ec40       _iswalpha                  0042fc40 f i LIBCMTD:_wctype.obj
 0001:0002ec60       __iswupper_l               0042fc60 f i LIBCMTD:_wctype.obj
 0001:0002ec80       _iswupper                  0042fc80 f i LIBCMTD:_wctype.obj
 0001:0002eca0       __iswlower_l               0042fca0 f i LIBCMTD:_wctype.obj
 0001:0002ecc0       _iswlower                  0042fcc0 f i LIBCMTD:_wctype.obj
 0001:0002ece0       __iswdigit_l               0042fce0 f i LIBCMTD:_wctype.obj
 0001:0002ed00       _iswdigit                  0042fd00 f i LIBCMTD:_wctype.obj
 0001:0002ed20       __iswxdigit_l              0042fd20 f i LIBCMTD:_wctype.obj
 0001:0002ed40       _iswxdigit                 0042fd40 f i LIBCMTD:_wctype.obj
 0001:0002ed60       __iswspace_l               0042fd60 f i LIBCMTD:_wctype.obj
 0001:0002ed80       _iswspace                  0042fd80 f i LIBCMTD:_wctype.obj
 0001:0002eda0       __iswpunct_l               0042fda0 f i LIBCMTD:_wctype.obj
 0001:0002edc0       _iswpunct                  0042fdc0 f i LIBCMTD:_wctype.obj
 0001:0002ede0       __iswalnum_l               0042fde0 f i LIBCMTD:_wctype.obj
 0001:0002ee00       _iswalnum                  0042fe00 f i LIBCMTD:_wctype.obj
 0001:0002ee20       __iswprint_l               0042fe20 f i LIBCMTD:_wctype.obj
 0001:0002ee40       _iswprint                  0042fe40 f i LIBCMTD:_wctype.obj
 0001:0002ee60       __iswgraph_l               0042fe60 f i LIBCMTD:_wctype.obj
 0001:0002ee80       _iswgraph                  0042fe80 f i LIBCMTD:_wctype.obj
 0001:0002eea0       __iswcntrl_l               0042fea0 f i LIBCMTD:_wctype.obj
 0001:0002eec0       _iswcntrl                  0042fec0 f i LIBCMTD:_wctype.obj
 0001:0002eee0       _iswascii                  0042fee0 f i LIBCMTD:_wctype.obj
 0001:0002ef00       __iswcsym_l                0042ff00 f i LIBCMTD:_wctype.obj
 0001:0002ef40       ___iswcsym                 0042ff40 f i LIBCMTD:_wctype.obj
 0001:0002ef80       __iswcsymf_l               0042ff80 f i LIBCMTD:_wctype.obj
 0001:0002efc0       ___iswcsymf                0042ffc0 f i LIBCMTD:_wctype.obj
 0001:0002f000       __validate_param_reuseA    00430000 f   LIBCMTD:outputp.obj
 0001:0002f270       __output_p_l               00430270 f   LIBCMTD:outputp.obj
 0001:00032e30       _get_crtdouble_arg         00433e30 f i LIBCMTD:outputp.obj
 0001:00032e50       __output_s_l               00433e50 f   LIBCMTD:outputs.obj
 0001:000343e0       ___unDName                 004353e0 f   LIBCMTD:undname.obj
 0001:000344c0       ?Constructor@HeapManager@@QAEXP6APAXI@ZP6AXPAX@Z@Z 004354c0 f i LIBCMTD:undname.obj
 0001:00034500       ?Destructor@HeapManager@@QAEXXZ 00435500 f i LIBCMTD:undname.obj
 0001:00034550       ___unDNameEx               00435550 f   LIBCMTD:undname.obj
 0001:00034630       ??0UnDecorator@@QAE@PADPBDHP6APADJ@ZK@Z 00435630 f i LIBCMTD:undname.obj
 0001:000346d0       ??BUnDecorator@@QAEPADXZ   004356d0 f i LIBCMTD:undname.obj
 0001:00034900       ?dbGetString@DName@@QBEPADXZ 00435900 f   LIBCMTD:undname.obj
 0001:00034930       ?getDecoratedName@UnDecorator@@CA?AVDName@@XZ 00435930 f   LIBCMTD:undname.obj
 0001:00034c40       ?getSymbolName@UnDecorator@@CA?AVDName@@XZ 00435c40 f i LIBCMTD:undname.obj
 0001:00034cc0       ?getZName@UnDecorator@@CA?AVDName@@_N0@Z 00435cc0 f   LIBCMTD:undname.obj
 0001:00034f60       ?getOperatorName@UnDecorator@@CA?AVDName@@_NPA_N@Z 00435f60 f i LIBCMTD:undname.obj
 0001:000358d0       ?getStringEncoding@UnDecorator@@CA?AVDName@@PADH@Z 004368d0 f   LIBCMTD:undname.obj
 0001:000359d0       ?getScope@UnDecorator@@CA?AVDName@@XZ 004369d0 f   LIBCMTD:undname.obj
 0001:00035db0       ?getSignedDimension@UnDecorator@@CA?AVDName@@XZ 00436db0 f   LIBCMTD:undname.obj
 0001:00035e30       ?getDimension@UnDecorator@@CA?AVDName@@_N@Z 00436e30 f   LIBCMTD:undname.obj
 0001:000360e0       ?getNumberOfDimensions@UnDecorator@@CAHXZ 004370e0 f   LIBCMTD:undname.obj
 0001:000361e0       ?getTemplateName@UnDecorator@@CA?AVDName@@_N@Z 004371e0 f   LIBCMTD:undname.obj
 0001:000363a0       ?getTemplateArgumentList@UnDecorator@@CA?AVDName@@XZ 004373a0 f   LIBCMTD:undname.obj
 0001:00036620       ?getTemplateConstant@UnDecorator@@CA?AVDName@@XZ 00437620 f   LIBCMTD:undname.obj
 0001:00036ab0       ?composeDeclaration@UnDecorator@@CA?AVDName@@ABV2@@Z 00437ab0 f i LIBCMTD:undname.obj
 0001:000380b0       ?getTypeEncoding@UnDecorator@@CAHXZ 004390b0 f i LIBCMTD:undname.obj
 0001:00038af0       ?getBasedType@UnDecorator@@CA?AVDName@@XZ 00439af0 f   LIBCMTD:undname.obj
 0001:00038bb0       ?getScopedName@UnDecorator@@CA?AVDName@@XZ 00439bb0 f   LIBCMTD:undname.obj
 0001:00038cd0       ?getCallingConvention@UnDecorator@@CA?AVDName@@XZ 00439cd0 f   LIBCMTD:undname.obj
 0001:00038e30       ?getReturnType@UnDecorator@@CA?AVDName@@PAV2@@Z 00439e30 f   LIBCMTD:undname.obj
 0001:00038e80       ?getDataType@UnDecorator@@CA?AVDName@@PAV2@@Z 00439e80 f   LIBCMTD:undname.obj
 0001:00038f90       ?getPrimaryDataType@UnDecorator@@CA?AVDName@@ABV2@@Z 00439f90 f   LIBCMTD:undname.obj
 0001:00039240       ?getArgumentTypes@UnDecorator@@CA?AVDName@@XZ 0043a240 f   LIBCMTD:undname.obj
 0001:000393a0       ?getArgumentList@UnDecorator@@CA?AVDName@@XZ 0043a3a0 f   LIBCMTD:undname.obj
 0001:000394f0       ?getThrowTypes@UnDecorator@@CA?AVDName@@XZ 0043a4f0 f   LIBCMTD:undname.obj
 0001:000395a0       ?getBasicDataType@UnDecorator@@CA?AVDName@@ABV2@@Z 0043a5a0 f   LIBCMTD:undname.obj
 0001:00039b50       ?getECSUDataType@UnDecorator@@CA?AVDName@@XZ 0043ab50 f   LIBCMTD:undname.obj
 0001:00039d20       ?getECSUName@UnDecorator@@CA?AVDName@@XZ 0043ad20 f i LIBCMTD:undname.obj
 0001:00039d40       ?getEnumType@UnDecorator@@CA?AVDName@@XZ 0043ad40 f i LIBCMTD:undname.obj
 0001:00039e90       ?getFunctionIndirectType@UnDecorator@@CA?AVDName@@ABV2@@Z 0043ae90 f   LIBCMTD:undname.obj
 0001:0003a2d0       ?getPtrRefType@UnDecorator@@CA?AVDName@@ABV2@0D@Z 0043b2d0 f   LIBCMTD:undname.obj
 0001:0003a430       ?getExtendedDataIndirectType@UnDecorator@@CA?AVDName@@AADAA_NH@Z 0043b430 f   LIBCMTD:undname.obj
 0001:0003a640       ?getDataIndirectType@UnDecorator@@CA?AVDName@@ABV2@D0H@Z 0043b640 f   LIBCMTD:undname.obj
 0001:0003ad40       ?getPtrRefDataType@UnDecorator@@CA?AVDName@@ABV2@H@Z 0043bd40 f i LIBCMTD:undname.obj
 0001:0003ae80       ?getArrayType@UnDecorator@@CA?AVDName@@ABV2@@Z 0043be80 f i LIBCMTD:undname.obj
 0001:0003b0b0       ?getLexicalFrame@UnDecorator@@CA?AVDName@@XZ 0043c0b0 f i LIBCMTD:undname.obj
 0001:0003b0f0       ?getThisType@UnDecorator@@CA?AVDName@@XZ 0043c0f0 f i LIBCMTD:undname.obj
 0001:0003b130       ?getPointerType@UnDecorator@@CA?AVDName@@ABV2@0@Z 0043c130 f i LIBCMTD:undname.obj
 0001:0003b150       ?getPointerTypeArray@UnDecorator@@CA?AVDName@@ABV2@0@Z 0043c150 f i LIBCMTD:undname.obj
 0001:0003b170       ?getReferenceType@UnDecorator@@CA?AVDName@@ABV2@0@Z 0043c170 f i LIBCMTD:undname.obj
 0001:0003b190       ?getDisplacement@UnDecorator@@CA?AVDName@@XZ 0043c190 f i LIBCMTD:undname.obj
 0001:0003b1b0       ?getCallIndex@UnDecorator@@CA?AVDName@@XZ 0043c1b0 f i LIBCMTD:undname.obj
 0001:0003b1d0       ?getGuardNumber@UnDecorator@@CA?AVDName@@XZ 0043c1d0 f i LIBCMTD:undname.obj
 0001:0003b1f0       ?getVbTableType@UnDecorator@@CA?AVDName@@ABV2@@Z 0043c1f0 f i LIBCMTD:undname.obj
 0001:0003b210       ?getVCallThunkType@UnDecorator@@CA?AVDName@@XZ 0043c210 f i LIBCMTD:undname.obj
 0001:0003b270       ?getVfTableType@UnDecorator@@CA?AVDName@@ABV2@@Z 0043c270 f i LIBCMTD:undname.obj
 0001:0003b430       ?getStorageConvention@UnDecorator@@CA?AVDName@@XZ 0043c430 f i LIBCMTD:undname.obj
 0001:0003b450       ?getDataIndirectType@UnDecorator@@CA?AVDName@@XZ 0043c450 f i LIBCMTD:undname.obj
 0001:0003b490       ?getVdispMapType@UnDecorator@@CA?AVDName@@ABV2@@Z 0043c490 f i LIBCMTD:undname.obj
 0001:0003b500       ?getExternalDataType@UnDecorator@@CA?AVDName@@ABV2@@Z 0043c500 f i LIBCMTD:undname.obj
 0001:0003b590       ?doMSKeywords@UnDecorator@@SAHXZ 0043c590 f i LIBCMTD:undname.obj
 0001:0003b5b0       ?doPtr64@UnDecorator@@SAHXZ 0043c5b0 f i LIBCMTD:undname.obj
 0001:0003b5d0       ?doFunctionReturns@UnDecorator@@SAHXZ 0043c5d0 f i LIBCMTD:undname.obj
 0001:0003b5f0       ?doAllocationModel@UnDecorator@@SAHXZ 0043c5f0 f i LIBCMTD:undname.obj
 0001:0003b610       ?doAllocationLanguage@UnDecorator@@SAHXZ 0043c610 f i LIBCMTD:undname.obj
 0001:0003b630       ?doThisTypes@UnDecorator@@SAHXZ 0043c630 f i LIBCMTD:undname.obj
 0001:0003b650       ?doAccessSpecifiers@UnDecorator@@SAHXZ 0043c650 f i LIBCMTD:undname.obj
 0001:0003b670       ?doThrowTypes@UnDecorator@@SAHXZ 0043c670 f i LIBCMTD:undname.obj
 0001:0003b690       ?doMemberTypes@UnDecorator@@SAHXZ 0043c690 f i LIBCMTD:undname.obj
 0001:0003b6b0       ?doNameOnly@UnDecorator@@SAHXZ 0043c6b0 f i LIBCMTD:undname.obj
 0001:0003b6d0       ?doTypeOnly@UnDecorator@@SAHXZ 0043c6d0 f i LIBCMTD:undname.obj
 0001:0003b6f0       ?haveTemplateParameters@UnDecorator@@SAHXZ 0043c6f0 f i LIBCMTD:undname.obj
 0001:0003b710       ?doEcsu@UnDecorator@@SAHXZ 0043c710 f i LIBCMTD:undname.obj
 0001:0003b730       ?doEllipsis@UnDecorator@@SAHXZ 0043c730 f i LIBCMTD:undname.obj
 0001:0003b750       ?UScore@UnDecorator@@SAPBDW4Tokens@@@Z 0043c750 f   LIBCMTD:undname.obj
 0001:0003b780       ?doUnderScore@UnDecorator@@SAHXZ 0043c780 f i LIBCMTD:undname.obj
 0001:0003b7a0       ??2@YAPAXIAAVHeapManager@@H@Z 0043c7a0 f i LIBCMTD:undname.obj
 0001:0003b7c0       ?getMemory@HeapManager@@QAEPAXIH@Z 0043c7c0 f   LIBCMTD:undname.obj
 0001:0003b8d0       ??0Block@HeapManager@@QAE@XZ 0043c8d0 f i LIBCMTD:undname.obj
 0001:0003b8f0       ??H@YA?AVDName@@DABV0@@Z   0043c8f0 f i LIBCMTD:undname.obj
 0001:0003b920       ??H@YA?AVDName@@W4DNameStatus@@ABV0@@Z 0043c920 f i LIBCMTD:undname.obj
 0001:0003b950       ??H@YA?AVDName@@PBDABV0@@Z 0043c950 f i LIBCMTD:undname.obj
 0001:0003b980       ??0DName@@QAE@XZ           0043c980 f i LIBCMTD:undname.obj
 0001:0003ba40       ??0DName@@QAE@D@Z          0043ca40 f   LIBCMTD:undname.obj
 0001:0003bb20       ??0DName@@QAE@ABV0@@Z      0043cb20 f i LIBCMTD:undname.obj
 0001:0003bb50       ??0DName@@QAE@PAV0@@Z      0043cb50 f   LIBCMTD:undname.obj
 0001:0003bc80       ??0DName@@QAE@PBD@Z        0043cc80 f   LIBCMTD:undname.obj
 0001:0003bd60       ??0DName@@QAE@AAPBDD@Z     0043cd60 f   LIBCMTD:undname.obj
 0001:0003c020       ?doNoIdentCharCheck@UnDecorator@@SAHXZ 0043d020 f i LIBCMTD:undname.obj
 0001:0003c040       ??0DName@@QAE@_K@Z         0043d040 f   LIBCMTD:undname.obj
 0001:0003c180       ??0DName@@QAE@_J@Z         0043d180 f   LIBCMTD:undname.obj
 0001:0003c300       ??0DName@@QAE@W4DNameStatus@@@Z 0043d300 f   LIBCMTD:undname.obj
 0001:0003c420       ?isValid@DName@@QBEHXZ     0043d420 f i LIBCMTD:undname.obj
 0001:0003c450       ?isEmpty@DName@@QBEHXZ     0043d450 f i LIBCMTD:undname.obj
 0001:0003c470       ?status@DName@@QBE?AW4DNameStatus@@XZ 0043d470 f i LIBCMTD:undname.obj
 0001:0003c490       ?setPtrRef@DName@@QAEAAV1@XZ 0043d490 f i LIBCMTD:undname.obj
 0001:0003c4c0       ?isPtrRef@DName@@QBEHXZ    0043d4c0 f i LIBCMTD:undname.obj
 0001:0003c4e0       ?isUDC@DName@@QBEHXZ       0043d4e0 f i LIBCMTD:undname.obj
 0001:0003c520       ?setIsUDC@DName@@QAEXXZ    0043d520 f i LIBCMTD:undname.obj
 0001:0003c550       ?isUDTThunk@DName@@QBEHXZ  0043d550 f i LIBCMTD:undname.obj
 0001:0003c590       ?setIsArray@DName@@QAEXXZ  0043d590 f i LIBCMTD:undname.obj
 0001:0003c5b0       ?isArray@DName@@QBEHXZ     0043d5b0 f i LIBCMTD:undname.obj
 0001:0003c5d0       ?isNoTE@DName@@QBEHXZ      0043d5d0 f i LIBCMTD:undname.obj
 0001:0003c5f0       ?setIsNoTE@DName@@QAEXXZ   0043d5f0 f i LIBCMTD:undname.obj
 0001:0003c610       ?isPinPtr@DName@@QBEHXZ    0043d610 f i LIBCMTD:undname.obj
 0001:0003c630       ?setIsPinPtr@DName@@QAEXXZ 0043d630 f i LIBCMTD:undname.obj
 0001:0003c650       ?isComArray@DName@@QBEHXZ  0043d650 f i LIBCMTD:undname.obj
 0001:0003c670       ?setIsComArray@DName@@QAEXXZ 0043d670 f i LIBCMTD:undname.obj
 0001:0003c690       ?isVCallThunk@DName@@QBEHXZ 0043d690 f i LIBCMTD:undname.obj
 0001:0003c6b0       ?setIsVCallThunk@DName@@QAEXXZ 0043d6b0 f i LIBCMTD:undname.obj
 0001:0003c6d0       ?length@DName@@QBEHXZ      0043d6d0 f i LIBCMTD:undname.obj
 0001:0003c700       ?getLastChar@DName@@QBEDXZ 0043d700 f i LIBCMTD:undname.obj
 0001:0003c730       ?getString@DName@@QBEPADPADH@Z 0043d730 f i LIBCMTD:undname.obj
 0001:0003c7c0       ?getString@DName@@QBEPADPAD0@Z 0043d7c0 f i LIBCMTD:undname.obj
 0001:0003c800       ??HDName@@QBE?AV0@D@Z      0043d800 f   LIBCMTD:undname.obj
 0001:0003c840       ??HDName@@QBE?AV0@PBD@Z    0043d840 f   LIBCMTD:undname.obj
 0001:0003c880       ??HDName@@QBE?AV0@ABV0@@Z  0043d880 f   LIBCMTD:undname.obj
 0001:0003c8c0       ??HDName@@QBE?AV0@PAV0@@Z  0043d8c0 f   LIBCMTD:undname.obj
 0001:0003c900       ??HDName@@QBE?AV0@W4DNameStatus@@@Z 0043d900 f   LIBCMTD:undname.obj
 0001:0003c940       ?append@DName@@AAEXPAVDNameNode@@@Z 0043d940 f   LIBCMTD:undname.obj
 0001:0003c9d0       ??YDName@@QAEAAV0@D@Z      0043d9d0 f   LIBCMTD:undname.obj
 0001:0003ca60       ??YDName@@QAEAAV0@PBD@Z    0043da60 f   LIBCMTD:undname.obj
 0001:0003cb00       ??YDName@@QAEAAV0@ABV0@@Z  0043db00 f   LIBCMTD:undname.obj
 0001:0003cb70       ??YDName@@QAEAAV0@PAV0@@Z  0043db70 f   LIBCMTD:undname.obj
 0001:0003cc30       ??YDName@@QAEAAV0@W4DNameStatus@@@Z 0043dc30 f   LIBCMTD:undname.obj
 0001:0003cca0       ??_5DName@@QAEAAV0@ABV0@@Z 0043dca0 f   LIBCMTD:undname.obj
 0001:0003cd00       ??4DName@@QAEAAV0@D@Z      0043dd00 f i LIBCMTD:undname.obj
 0001:0003cde0       ??4DName@@QAEAAV0@PBD@Z    0043dde0 f   LIBCMTD:undname.obj
 0001:0003cec0       ??4DName@@QAEAAV0@ABV0@@Z  0043dec0 f   LIBCMTD:undname.obj
 0001:0003cef0       ??4DName@@QAEAAV0@PAV0@@Z  0043def0 f   LIBCMTD:undname.obj
 0001:0003d030       ??4DName@@QAEAAV0@W4DNameStatus@@@Z 0043e030 f   LIBCMTD:undname.obj
 0001:0003d130       ?doPchar@DName@@AAEXPBDH@Z 0043e130 f   LIBCMTD:undname.obj
 0001:0003d270       ?isFull@Replicator@@QBEHXZ 0043e270 f i LIBCMTD:undname.obj
 0001:0003d290       ??0Replicator@@QAE@XZ      0043e290 f i LIBCMTD:undname.obj
 0001:0003d2b0       ??YReplicator@@QAEAAV0@ABVDName@@@Z 0043e2b0 f   LIBCMTD:undname.obj
 0001:0003d340       ??AReplicator@@QBE?AVDName@@H@Z 0043e340 f   LIBCMTD:undname.obj
 0001:0003d3b0       ??0DNameNode@@IAE@XZ       0043e3b0 f   LIBCMTD:undname.obj
 0001:0003d3d0       ??0charNode@@QAE@D@Z       0043e3d0 f   LIBCMTD:undname.obj
 0001:0003d400       ?length@charNode@@UBEHXZ   0043e400 f i LIBCMTD:undname.obj
 0001:0003d420       ?getLastChar@charNode@@UBEDXZ 0043e420 f i LIBCMTD:undname.obj
 0001:0003d440       ?getString@charNode@@UBEPADPAD0@Z 0043e440 f i LIBCMTD:undname.obj
 0001:0003d470       ??0pcharNode@@QAE@PBDH@Z   0043e470 f   LIBCMTD:undname.obj
 0001:0003d500       ?length@pcharNode@@UBEHXZ  0043e500 f i LIBCMTD:undname.obj
 0001:0003d520       ?getLastChar@pcharNode@@UBEDXZ 0043e520 f i LIBCMTD:undname.obj
 0001:0003d560       ?getString@pcharNode@@UBEPADPAD0@Z 0043e560 f i LIBCMTD:undname.obj
 0001:0003d590       ?getStringHelper@@YAPADPAD00H@Z 0043e590 f i LIBCMTD:undname.obj
 0001:0003d5d0       ??0pDNameNode@@QAE@PAVDName@@@Z 0043e5d0 f   LIBCMTD:undname.obj
 0001:0003d630       ?length@pDNameNode@@UBEHXZ 0043e630 f i LIBCMTD:undname.obj
 0001:0003d670       ?getLastChar@pDNameNode@@UBEDXZ 0043e670 f i LIBCMTD:undname.obj
 0001:0003d6a0       ?getString@pDNameNode@@UBEPADPAD0@Z 0043e6a0 f i LIBCMTD:undname.obj
 0001:0003d6e0       ??0DNameStatusNode@@AAE@W4DNameStatus@@@Z 0043e6e0 f   LIBCMTD:undname.obj
 0001:0003d730       ?length@DNameStatusNode@@UBEHXZ 0043e730 f i LIBCMTD:undname.obj
 0001:0003d750       ?getLastChar@DNameStatusNode@@UBEDXZ 0043e750 f i LIBCMTD:undname.obj
 0001:0003d770       ?getString@DNameStatusNode@@UBEPADPAD0@Z 0043e770 f i LIBCMTD:undname.obj
 0001:0003d7b0       ?make@DNameStatusNode@@SAPAV1@W4DNameStatus@@@Z 0043e7b0 f i LIBCMTD:undname.obj
 0001:0003d860       ??0pairNode@@QAE@PAVDNameNode@@0@Z 0043e860 f   LIBCMTD:undname.obj
 0001:0003d8a0       ?length@pairNode@@UBEHXZ   0043e8a0 f i LIBCMTD:undname.obj
 0001:0003d8f0       ?getLastChar@pairNode@@UBEDXZ 0043e8f0 f i LIBCMTD:undname.obj
 0001:0003d940       ?getString@pairNode@@UBEPADPAD0@Z 0043e940 f i LIBCMTD:undname.obj
 0001:0003da80       __matherr                  0043ea80 f   LIBCMTD:_matherr_.obj
 0001:0003da90       __frnd                     0043ea90 f   LIBCMTD:_frnd_.obj
 0001:0003dab0       __handle_qnan1             0043eab0 f   LIBCMTD:_fpexcept_.obj
 0001:0003db10       __handle_qnan2             0043eb10 f   LIBCMTD:_fpexcept_.obj
 0001:0003db80       __except1                  0043eb80 f   LIBCMTD:_fpexcept_.obj
 0001:0003dc80       __except2                  0043ec80 f   LIBCMTD:_fpexcept_.obj
 0001:0003dd90       __raise_exc_ex             0043ed90 f   LIBCMTD:_fpexcept_.obj
 0001:0003e2c0       __raise_exc                0043f2c0 f   LIBCMTD:_fpexcept_.obj
 0001:0003e2f0       __raise_excf               0043f2f0 f   LIBCMTD:_fpexcept_.obj
 0001:0003e320       __handle_exc               0043f320 f   LIBCMTD:_fpexcept_.obj
 0001:0003e630       __umatherr                 0043f630 f   LIBCMTD:_fpexcept_.obj
 0001:0003e6d0       __set_errno_from_matherr   0043f6d0 f   LIBCMTD:_fpexcept_.obj
 0001:0003e760       __errcode                  0043f760 f   LIBCMTD:_fpexcept_.obj
 0001:0003e7d0       __set_exp                  0043f7d0 f   LIBCMTD:_util_.obj
 0001:0003e810       __get_exp                  0043f810 f   LIBCMTD:_util_.obj
 0001:0003e840       __add_exp                  0043f840 f   LIBCMTD:_util_.obj
 0001:0003e880       __set_bexp                 0043f880 f   LIBCMTD:_util_.obj
 0001:0003e8b0       __sptype                   0043f8b0 f   LIBCMTD:_util_.obj
 0001:0003e930       __decomp                   0043f930 f   LIBCMTD:_util_.obj
 0001:0003ea50       __statfp                   0043fa50 f   LIBCMTD:_fpctrl_.obj
 0001:0003ea70       __clrfp                    0043fa70 f   LIBCMTD:_fpctrl_.obj
 0001:0003ea90       __ctrlfp                   0043fa90 f   LIBCMTD:_fpctrl_.obj
 0001:0003eac0       __set_statfp               0043fac0 f   LIBCMTD:_fpctrl_.obj
 0001:0003eb30       ___get_fpsr_sse2           0043fb30 f   LIBCMTD:_fpctrl_.obj
 0001:0003eb60       ___set_fpsr_sse2           0043fb60 f   LIBCMTD:_fpctrl_.obj
 0001:0003ec40       ___fclrf_sse2              0043fc40 f   LIBCMTD:_fpctrl_.obj
 0001:0003ec60       ___statfp_sse2             0043fc60 f   LIBCMTD:_fpctrl_.obj
 0001:0003ec90       ___clrfp_sse2              0043fc90 f   LIBCMTD:_fpctrl_.obj
 0001:0003ecd0       ___ctrlfp_sse2             0043fcd0 f   LIBCMTD:_fpctrl_.obj
 0001:0003ed30       ___set_statfp_sse2         0043fd30 f   LIBCMTD:_fpctrl_.obj
 0001:0003ed60       __mbstowcs_l_helper        0043fd60 f   LIBCMTD:mbstowcs.obj
 0001:0003f0b0       __mbstowcs_l               004400b0 f   LIBCMTD:mbstowcs.obj
 0001:0003f0d0       _mbstowcs                  004400d0 f   LIBCMTD:mbstowcs.obj
 0001:0003f120       __mbstowcs_s_l             00440120 f   LIBCMTD:mbstowcs.obj
 0001:0003f4a0       _mbstowcs_s                004404a0 f   LIBCMTD:mbstowcs.obj
 0001:0003f4d0       _strcat_s                  004404d0 f   LIBCMTD:strcat_s.obj
 0001:0003f8b0       __itoa_s                   004408b0 f   LIBCMTD:xtoas.obj
 0001:0003fc80       __ltoa_s                   00440c80 f   LIBCMTD:xtoas.obj
 0001:0003fcc0       __ultoa_s                  00440cc0 f   LIBCMTD:xtoas.obj
 0001:0003fce0       __i64toa_s                 00440ce0 f   LIBCMTD:xtoas.obj
 0001:000400e0       __ui64toa_s                004410e0 f   LIBCMTD:xtoas.obj
 0001:00040100       __wcstombs_l_helper        00441100 f   LIBCMTD:wcstombs.obj
 0001:000405f0       __wcstombs_l               004415f0 f   LIBCMTD:wcstombs.obj
 0001:00040610       _wcstombs                  00441610 f   LIBCMTD:wcstombs.obj
 0001:00040630       __wcstombs_s_l             00441630 f   LIBCMTD:wcstombs.obj
 0001:00040960       _wcstombs_s                00441960 f   LIBCMTD:wcstombs.obj
 0001:00040990       _wcscat_s                  00441990 f   LIBCMTD:wcscat_s.obj
 0001:00040d80       __vswprintf_helper         00441d80 f   LIBCMTD:vswprnc.obj
 0001:00040fb0       __vswprintf_c              00441fb0 f   LIBCMTD:vswprnc.obj
 0001:00041000       __vswprintf_c_l            00442000 f   LIBCMTD:vswprnc.obj
 0001:00041050       __vswprintf_s_l            00442050 f   LIBCMTD:vswprnc.obj
 0001:000412c0       _vswprintf_s               004422c0 f   LIBCMTD:vswprnc.obj
 0001:000412f0       __vsnwprintf_s_l           004422f0 f   LIBCMTD:vswprnc.obj
 0001:000416a0       __vsnwprintf_s             004426a0 f   LIBCMTD:vswprnc.obj
 0001:000416d0       __vswprintf_p              004426d0 f   LIBCMTD:vswprnc.obj
 0001:00041720       __vswprintf_p_l            00442720 f   LIBCMTD:vswprnc.obj
 0001:00041770       __itow_s                   00442770 f   LIBCMTD:xtows.obj
 0001:00041b50       __ltow_s                   00442b50 f   LIBCMTD:xtows.obj
 0001:00041b90       __ultow_s                  00442b90 f   LIBCMTD:xtows.obj
 0001:00041bb0       __i64tow_s                 00442bb0 f   LIBCMTD:xtows.obj
 0001:00041fd0       __ui64tow_s                00442fd0 f   LIBCMTD:xtows.obj
 0001:00041ff0       __initp_misc_rand_s        00442ff0 f   LIBCMTD:rand_s.obj
 0001:00042000       _rand_s                    00443000 f   LIBCMTD:rand_s.obj
 0001:00042220       ___getlocaleinfo           00443220 f   LIBCMTD:inithelp.obj
 0001:000424c0       __initp_misc_purevirt      004434c0 f   LIBCMTD:inithelp.obj
 0001:000424d0       __woutput_l                004434d0 f   LIBCMTD:woutput.obj
 0001:000436a0       __vswprintf_l              004446a0 f   LIBCMTD:vswprint.obj
 0001:00043870       __vswprintf                00444870 f   LIBCMTD:vswprint.obj
 0001:00043890       ___vswprintf_l             00444890 f   LIBCMTD:vswprint.obj
 0001:000438b0       __vscwprintf_helper        004448b0 f   LIBCMTD:vswprint.obj
 0001:00043970       __vscwprintf               00444970 f   LIBCMTD:vswprint.obj
 0001:00043990       __vscwprintf_l             00444990 f   LIBCMTD:vswprint.obj
 0001:000439b0       __vscwprintf_p             004449b0 f   LIBCMTD:vswprint.obj
 0001:000439d0       __vscwprintf_p_l           004449d0 f   LIBCMTD:vswprint.obj
 0001:000439f0       __ismbbkalnum_l            004449f0 f   LIBCMTD:ismbbyte.obj
 0001:00043a10       __ismbbkalnum              00444a10 f   LIBCMTD:ismbbyte.obj
 0001:00043a30       __ismbbkprint_l            00444a30 f   LIBCMTD:ismbbyte.obj
 0001:00043a50       __ismbbkprint              00444a50 f   LIBCMTD:ismbbyte.obj
 0001:00043a70       __ismbbkpunct_l            00444a70 f   LIBCMTD:ismbbyte.obj
 0001:00043a90       __ismbbkpunct              00444a90 f   LIBCMTD:ismbbyte.obj
 0001:00043ab0       __ismbbalnum_l             00444ab0 f   LIBCMTD:ismbbyte.obj
 0001:00043ad0       __ismbbalnum               00444ad0 f   LIBCMTD:ismbbyte.obj
 0001:00043af0       __ismbbalpha_l             00444af0 f   LIBCMTD:ismbbyte.obj
 0001:00043b10       __ismbbalpha               00444b10 f   LIBCMTD:ismbbyte.obj
 0001:00043b30       __ismbbgraph_l             00444b30 f   LIBCMTD:ismbbyte.obj
 0001:00043b50       __ismbbgraph               00444b50 f   LIBCMTD:ismbbyte.obj
 0001:00043b70       __ismbbprint_l             00444b70 f   LIBCMTD:ismbbyte.obj
 0001:00043b90       __ismbbprint               00444b90 f   LIBCMTD:ismbbyte.obj
 0001:00043bb0       __ismbbpunct_l             00444bb0 f   LIBCMTD:ismbbyte.obj
 0001:00043bd0       __ismbbpunct               00444bd0 f   LIBCMTD:ismbbyte.obj
 0001:00043bf0       __ismbblead_l              00444bf0 f   LIBCMTD:ismbbyte.obj
 0001:00043c10       __ismbblead                00444c10 f   LIBCMTD:ismbbyte.obj
 0001:00043c30       __ismbbtrail_l             00444c30 f   LIBCMTD:ismbbyte.obj
 0001:00043c50       __ismbbtrail               00444c50 f   LIBCMTD:ismbbyte.obj
 0001:00043c70       __ismbbkana_l              00444c70 f   LIBCMTD:ismbbyte.obj
 0001:00043ce0       __ismbbkana                00444ce0 f   LIBCMTD:ismbbyte.obj
 0001:00043dd0       __set_error_mode           00444dd0 f   LIBCMTD:errmode.obj
 0001:00043e90       ___set_app_type            00444e90 f   LIBCMTD:errmode.obj
 0001:00043ea0       ___get_app_type            00444ea0 f   LIBCMTD:errmode.obj
 0001:00043eb0       ___crtMessageBoxA          00444eb0 f   LIBCMTD:crtmbox.obj
 0001:000440d0       _strncpy_s                 004450d0 f   LIBCMTD:strncpy_s.obj
 0001:000444c0       __statusfp2                004454c0 f   LIBCMTD:_ieee87_.obj
 0001:00044500       __statusfp                 00445500 f   LIBCMTD:_ieee87_.obj
 0001:00044550       __clearfp                  00445550 f   LIBCMTD:_ieee87_.obj
 0001:000445a0       ___control87_2             004455a0 f   LIBCMTD:_ieee87_.obj
 0001:00044650       __controlfp                00445650 f   LIBCMTD:_ieee87_.obj
 0001:00044670       __control87                00445670 f i LIBCMTD:_ieee87_.obj
 0001:00044720       __set_controlfp            00445720 f   LIBCMTD:_ieee87_.obj
 0001:000447b0       __fpreset                  004457b0 f   LIBCMTD:_ieee87_.obj
 0001:00044f70       ___crtLCMapStringA         00445f70 f   LIBCMTD:a_map.obj
 0001:000454d0       __MarkAllocaS              004464d0 f i LIBCMTD:a_map.obj
 0001:00045500       __freea                    00446500 f i LIBCMTD:a_map.obj
 0001:000455c0       ___crtGetStringTypeA       004465c0 f   LIBCMTD:a_str.obj
 0001:00045850       ___pwctype_func            00446850 f   LIBCMTD:ctype.obj
 0001:00045860       ___pctype_func             00446860 f   LIBCMTD:ctype.obj
 0001:000458b0       ___init_time               004468b0 f   LIBCMTD:inittime.obj
 0001:00045fd0       ___free_lc_time            00446fd0 f   LIBCMTD:inittime.obj
 0001:000462e0       ___init_numeric            004472e0 f   LIBCMTD:initnum.obj
 0001:00046640       ___free_lconv_num          00447640 f   LIBCMTD:initnum.obj
 0001:000466b0       ___init_monetary           004476b0 f   LIBCMTD:initmon.obj
 0001:00046bb0       ___free_lconv_mon          00447bb0 f   LIBCMTD:initmon.obj
 0001:00046ca0       ___init_ctype              00447ca0 f   LIBCMTD:initctyp.obj
 0001:00047250       ____mb_cur_max_func        00448250 f   LIBCMTD:initctyp.obj
 0001:000472a0       ____mb_cur_max_l_func      004482a0 f   LIBCMTD:initctyp.obj
 0001:000472d0       ____lc_codepage_func       004482d0 f   LIBCMTD:initctyp.obj
 0001:00047320       ____lc_collate_cp_func     00448320 f   LIBCMTD:initctyp.obj
 0001:00047370       ____lc_handle_func         00448370 f   LIBCMTD:initctyp.obj
 0001:000473c0       ___init_collate            004483c0 f   LIBCMTD:initcoll.obj
 0001:000473d0       __Getdays_l                004483d0 f   LIBCMTD:strftime.obj
 0001:00047590       __Getdays                  00448590 f   LIBCMTD:strftime.obj
 0001:000475b0       __Getmonths_l              004485b0 f   LIBCMTD:strftime.obj
 0001:00047770       __Getmonths                00448770 f   LIBCMTD:strftime.obj
 0001:00047790       __Gettnames_l              00448790 f   LIBCMTD:strftime.obj
 0001:00047d00       __Gettnames                00448d00 f   LIBCMTD:strftime.obj
 0001:00047d20       __strftime_l               00448d20 f   LIBCMTD:strftime.obj
 0001:00047d50       _strftime                  00448d50 f   LIBCMTD:strftime.obj
 0001:00047d80       __Strftime                 00448d80 f   LIBCMTD:strftime.obj
 0001:00047db0       __Strftime_l               00448db0 f   LIBCMTD:strftime.obj
 0001:00049bc0       _localeconv                0044abc0 f   LIBCMTD:lconv.obj
 0001:00049c10       _strcspn                   0044ac10 f   LIBCMTD:strcspn.obj
 0001:00049c60       _strncmp                   0044ac60 f   LIBCMTD:strncmp.obj
 0001:00049de0       _strpbrk                   0044ade0 f   LIBCMTD:strpbrk.obj
 0001:00049e20       _memcmp                    0044ae20 f   LIBCMTD:memcmp.obj
 0001:0004a890       ___get_qualified_locale    0044b890 f   LIBCMTD:getqloc.obj
 0001:0004b730       __ld12tod                  0044c730 f   LIBCMTD:_intrncvt_.obj
 0001:0004b750       __ld12cvt                  0044c750 f i LIBCMTD:_intrncvt_.obj
 0001:0004b9a0       __RoundMan                 0044c9a0 f i LIBCMTD:_intrncvt_.obj
 0001:0004ba80       __ZeroTail                 0044ca80 f i LIBCMTD:_intrncvt_.obj
 0001:0004bb10       __IncMan                   0044cb10 f i LIBCMTD:_intrncvt_.obj
 0001:0004bbc0       ___addl                    0044cbc0 f i LIBCMTD:_intrncvt_.obj
 0001:0004bc00       __CopyMan                  0044cc00 f i LIBCMTD:_intrncvt_.obj
 0001:0004bc50       __FillZeroMan              0044cc50 f i LIBCMTD:_intrncvt_.obj
 0001:0004bc90       __IsZeroMan                0044cc90 f i LIBCMTD:_intrncvt_.obj
 0001:0004bcd0       __ShrMan                   0044ccd0 f i LIBCMTD:_intrncvt_.obj
 0001:0004bdc0       __ld12tof                  0044cdc0 f   LIBCMTD:_intrncvt_.obj
 0001:0004bde0       __ld12told                 0044cde0 f   LIBCMTD:_intrncvt_.obj
 0001:0004be90       ___strgtold12_l            0044ce90 f   LIBCMTD:_strgtold_.obj
 0001:0004c940       ___multtenpow12            0044d940 f i LIBCMTD:_strgtold_.obj
 0001:0004ca20       ___ld12mul                 0044da20 f i LIBCMTD:_strgtold_.obj
 0001:0004ce20       ___shl_12                  0044de20 f i LIBCMTD:_strgtold_.obj
 0001:0004ce90       ___shr_12                  0044de90 f i LIBCMTD:_strgtold_.obj
 0001:0004cf00       ___STRINGTOLD_L            0044df00 f   LIBCMTD:_strgtold_.obj
 0001:0004cf70       _$I10_OUTPUT               0044df70 f   LIBCMTD:_x10fout_.obj
 0001:0004d520       ___add_12                  0044e520 f i LIBCMTD:_x10fout_.obj
 0001:0004d5d0       __alloc_osfhnd             0044e5d0 f   LIBCMTD:osfinfo.obj
 0001:0004d880       __set_osfhnd               0044e880 f   LIBCMTD:osfinfo.obj
 0001:0004d950       __free_osfhnd              0044e950 f   LIBCMTD:osfinfo.obj
 0001:0004da40       __get_osfhandle            0044ea40 f   LIBCMTD:osfinfo.obj
 0001:0004dbb0       __open_osfhandle           0044ebb0 f   LIBCMTD:osfinfo.obj
 0001:0004dde0       ___lock_fhandle            0044ede0 f   LIBCMTD:osfinfo.obj
 0001:0004dee0       __unlock_fhandle           0044eee0 f   LIBCMTD:osfinfo.obj
 0001:0004df10       __putwch                   0044ef10 f   LIBCMTD:putwch.obj
 0001:0004dfa0       __putwch_nolock            0044efa0 f   LIBCMTD:putwch.obj
 0001:0004e0a0       __cputws                   0044f0a0 f   LIBCMTD:putwch.obj
 0001:0004e1f0       __mbtowc_l                 0044f1f0 f   LIBCMTD:mbtowc.obj
 0001:0004e410       _mbtowc                    0044f410 f   LIBCMTD:mbtowc.obj
 0001:0004e430       __fcloseall                0044f430 f   LIBCMTD:closeall.obj
 0001:0004e560       _fflush                    0044f560 f   LIBCMTD:fflush.obj
 0001:0004e600       __fflush_nolock            0044f600 f   LIBCMTD:fflush.obj
 0001:0004e660       __flush                    0044f660 f   LIBCMTD:fflush.obj
 0001:0004e720       __flushall                 0044f720 f   LIBCMTD:fflush.obj
 0001:0004e8f0       __stbuf                    0044f8f0 f   LIBCMTD:_sftbuf.obj
 0001:0004ea50       __ftbuf                    0044fa50 f   LIBCMTD:_sftbuf.obj
 0001:0004eae0       _vprintf_helper            0044fae0 f   LIBCMTD:vprintf.obj
 0001:0004ec00       __vprintf_l                0044fc00 f   LIBCMTD:vprintf.obj
 0001:0004ec20       __vprintf_s_l              0044fc20 f   LIBCMTD:vprintf.obj
 0001:0004ec40       __vprintf_p_l              0044fc40 f   LIBCMTD:vprintf.obj
 0001:0004ec60       _vprintf                   0044fc60 f   LIBCMTD:vprintf.obj
 0001:0004ec80       _vprintf_s                 0044fc80 f   LIBCMTD:vprintf.obj
 0001:0004eca0       __vprintf_p                0044fca0 f   LIBCMTD:vprintf.obj
 0001:0004ecc0       __iswctype_l               0044fcc0 f   LIBCMTD:iswctype.obj
 0001:0004ed70       _iswctype                  0044fd70 f   LIBCMTD:iswctype.obj
 0001:0004ee00       _is_wctype                 0044fe00 f   LIBCMTD:iswctype.obj
 0001:0004ee20       _strtol                    0044fe20 f   LIBCMTD:strtol.obj
 0001:0004f350       __strtol_l                 00450350 f   LIBCMTD:strtol.obj
 0001:0004f380       _strtoul                   00450380 f   LIBCMTD:strtol.obj
 0001:0004f3d0       __strtoul_l                004503d0 f   LIBCMTD:strtol.obj
 0001:0004f400       _atol                      00450400 f   LIBCMTD:atox.obj
 0001:0004f420       __atol_l                   00450420 f   LIBCMTD:atox.obj
 0001:0004f440       _atoi                      00450440 f   LIBCMTD:atox.obj
 0001:0004f460       __atoi_l                   00450460 f   LIBCMTD:atox.obj
 0001:0004f480       __atoi64                   00450480 f   LIBCMTD:atox.obj
 0001:0004f4a0       __atoi64_l                 004504a0 f   LIBCMTD:atox.obj
 0001:0004f4c0       __purecall                 004504c0 f   LIBCMTD:purevirt.obj
 0001:0004f500       __set_purecall_handler     00450500 f   LIBCMTD:purevirt.obj
 0001:0004f540       __get_purecall_handler     00450540 f   LIBCMTD:purevirt.obj
 0001:0004f560       __woutput_s_l              00450560 f   LIBCMTD:woutputs.obj
 0001:00050890       __validate_param_reuseW    00451890 f   LIBCMTD:woutputp.obj
 0001:00050b00       __woutput_p_l              00451b00 f   LIBCMTD:woutputp.obj
 0001:00054260       ___crtGetLocaleInfoW       00455260 f   LIBCMTD:w_loc.obj
 0001:000542d0       ___crtGetLocaleInfoA       004552d0 f   LIBCMTD:a_loc.obj
 0001:000544b0       _fputwc                    004554b0 f   LIBCMTD:fputwc.obj
 0001:000545b0       __fputwc_nolock            004555b0 f   LIBCMTD:fputwc.obj
 0001:000548a0       _putwc                     004558a0 f   LIBCMTD:fputwc.obj
 0001:000548c0       ___ansicp                  004558c0 f   LIBCMTD:convrtcp.obj
 0001:00054920       ___convertcp               00455920 f   LIBCMTD:convrtcp.obj
 0001:00054b70       __get_daylight             00455b70 f   LIBCMTD:timeset.obj
 0001:00054bf0       __get_dstbias              00455bf0 f   LIBCMTD:timeset.obj
 0001:00054c70       __get_timezone             00455c70 f   LIBCMTD:timeset.obj
 0001:00054cf0       __get_tzname               00455cf0 f   LIBCMTD:timeset.obj
 0001:00054ec0       ___daylight                00455ec0 f   LIBCMTD:timeset.obj
 0001:00054ed0       ___dstbias                 00455ed0 f   LIBCMTD:timeset.obj
 0001:00054ee0       ___timezone                00455ee0 f   LIBCMTD:timeset.obj
 0001:00054ef0       ___tzname                  00455ef0 f   LIBCMTD:timeset.obj
 0001:00054f00       ___tzset                   00455f00 f   LIBCMTD:tzset.obj
 0001:00054fa0       __tzset                    00455fa0 f   LIBCMTD:tzset.obj
 0001:00055550       __set_daylight             00456550 f i LIBCMTD:tzset.obj
 0001:00055570       __set_dstbias              00456570 f i LIBCMTD:tzset.obj
 0001:00055590       __set_timezone             00456590 f i LIBCMTD:tzset.obj
 0001:000555b0       __isindst                  004565b0 f   LIBCMTD:tzset.obj
 0001:00055c60       __stricmp_l                00456c60 f   LIBCMTD:stricmp.obj
 0001:00055e10       ___ascii_stricmp           00456e10 f   LIBCMTD:stricmp.obj
 0001:00055e90       __stricmp                  00456e90 f   LIBCMTD:stricmp.obj
 0001:00055fa0       __strnicmp_l               00456fa0 f   LIBCMTD:strnicmp.obj
 0001:000561e0       __strnicmp                 004571e0 f   LIBCMTD:strnicmp.obj
 0001:00056370       ___mtold12                 00457370 f   LIBCMTD:_mantold_.obj
 0001:000564d0       ___initconin               004574d0 f   LIBCMTD:initcon.obj
 0001:00056500       ___initconout              00457500 f   LIBCMTD:initcon.obj
 0001:00056530       ___termcon                 00457530 f   LIBCMTD:initcon.obj
 0001:00056580       _fclose                    00457580 f   LIBCMTD:fclose.obj
 0001:00056690       __fclose_nolock            00457690 f   LIBCMTD:fclose.obj
 0001:00056790       __commit                   00457790 f   LIBCMTD:commit.obj
 0001:000569b0       ___crtGetStringTypeW       004579b0 f   LIBCMTD:w_str.obj
 0001:00056a30       __strtoi64                 00457a30 f   LIBCMTD:strtoq.obj
 0001:00056fa0       __strtoi64_l               00457fa0 f   LIBCMTD:strtoq.obj
 0001:00056fd0       __strtoui64                00457fd0 f   LIBCMTD:strtoq.obj
 0001:00057020       __strtoui64_l              00458020 f   LIBCMTD:strtoq.obj
 0001:00057050       _wcstol                    00458050 f   LIBCMTD:wcstol.obj
 0001:000574d0       __wcstol_l                 004584d0 f   LIBCMTD:wcstol.obj
 0001:00057500       _wcstoul                   00458500 f   LIBCMTD:wcstol.obj
 0001:00057550       __wcstoul_l                00458550 f   LIBCMTD:wcstol.obj
 0001:00057580       __flswbuf                  00458580 f   LIBCMTD:_flswbuf.obj
 0001:00057860       _getenv                    00458860 f   LIBCMTD:getenv.obj
 0001:000579b0       __getenv_helper_nolock     004589b0 f   LIBCMTD:getenv.obj
 0001:00057ad0       _getenv_s                  00458ad0 f   LIBCMTD:getenv.obj
 0001:00057d00       __dupenv_s                 00458d00 f   LIBCMTD:getenv.obj
 0001:00057d30       __dupenv_s_dbg             00458d30 f   LIBCMTD:getenv.obj
 0001:00057f80       ___ascii_strnicmp          00458f80 f   LIBCMTD:_strnicm.obj
 0001:00057ff0       __close                    00458ff0 f   LIBCMTD:close.obj
 0001:00058200       __close_nolock             00459200 f   LIBCMTD:close.obj
 0001:000582d0       __freebuf                  004592d0 f   LIBCMTD:_freebuf.obj
 0001:00058360       __allmul                   00459360 f   LIBCMTD:llmul.obj
 0001:000583a0       __wchartodigit             004593a0 f   LIBCMTD:wchtodig.obj
 0001:000586d0       _strnlen                   004596d0 f   LIBCMTD:strlen_s.obj
 0001:00058710       __mbsnbicoll_l             00459710 f   LIBCMTD:mbsnbico.obj
 0001:00058950       __mbsnbicoll               00459950 f   LIBCMTD:mbsnbico.obj
 0001:00058970       ___wtomb_environ           00459970 f   LIBCMTD:wtombenv.obj
 0001:00058a60       ___crtCompareStringA       00459a60 f   LIBCMTD:a_cmp.obj
 0001:00059020       __strnicoll_l              0045a020 f   LIBCMTD:strnicol.obj
 0001:00059270       __strnicoll                0045a270 f   LIBCMTD:strnicol.obj
 0001:000592b0       ___crtsetenv               0045a2b0 f   LIBCMTD:setenv.obj
 0001:00059930       __mbschr_l                 0045a930 f   LIBCMTD:mbschr.obj
 0001:00059ac0       __mbschr                   0045aac0 f   LIBCMTD:mbschr.obj
 0001:00059af0       _strchr                    0045aaf0 f   LIBCMTD:strchr.obj
 0001:00059af6       ___from_strstr_to_strchr   0045aaf6     LIBCMTD:strchr.obj
 0001:00059bb0       ??2@YAPAXIABU_DebugHeapTag_t@std@@PADH@Z 0045abb0 f   libcpmtd:xdebug.obj
 0001:00059c30       ??_U@YAPAXIABU_DebugHeapTag_t@std@@PADH@Z 0045ac30 f   libcpmtd:xdebug.obj
 0001:00059c50       ??3@YAXPAXABU_DebugHeapTag_t@std@@PADH@Z 0045ac50 f   libcpmtd:xdebug.obj
 0001:00059c70       ??_V@YAXPAXABU_DebugHeapTag_t@std@@PADH@Z 0045ac70 f   libcpmtd:xdebug.obj
 0001:00059c90       ?_DebugHeapTag_func@std@@YAABU_DebugHeapTag_t@1@XZ 0045ac90 f   libcpmtd:xdebug.obj
 0001:00059ca0       ??0_Init_locks@std@@QAE@XZ 0045aca0 f   libcpmtd:xlock.obj
 0001:00059cf0       ??1_Init_locks@std@@QAE@XZ 0045acf0 f   libcpmtd:xlock.obj
 0001:00059d40       ?_Init_locks_ctor@_Init_locks@std@@CAXPAV12@@Z 0045ad40 f   libcpmtd:xlock.obj
 0001:00059d90       ?_Init_locks_dtor@_Init_locks@std@@CAXPAV12@@Z 0045ad90 f   libcpmtd:xlock.obj
 0001:00059de0       ??0_Lockit@std@@QAE@XZ     0045ade0 f   libcpmtd:xlock.obj
 0001:00059e10       ??0_Lockit@std@@QAE@H@Z    0045ae10 f   libcpmtd:xlock.obj
 0001:00059e50       ??1_Lockit@std@@QAE@XZ     0045ae50 f   libcpmtd:xlock.obj
 0001:00059e80       ?_Lockit_ctor@_Lockit@std@@CAXPAV12@@Z 0045ae80 f   libcpmtd:xlock.obj
 0001:00059ea0       ?_Lockit_ctor@_Lockit@std@@CAXPAV12@H@Z 0045aea0 f   libcpmtd:xlock.obj
 0001:00059ed0       ?_Lockit_dtor@_Lockit@std@@CAXPAV12@@Z 0045aed0 f   libcpmtd:xlock.obj
 0001:00059ef0       ?_Lockit_ctor@_Lockit@std@@SAXH@Z 0045aef0 f   libcpmtd:xlock.obj
 0001:00059f10       ?_Lockit_dtor@_Lockit@std@@SAXH@Z 0045af10 f   libcpmtd:xlock.obj
 0001:00059f30       ?_Xlen@_String_base@std@@SAXXZ 0045af30 f   libcpmtd:string.obj
 0001:00059fb0       ?_Xran@_String_base@std@@SAXXZ 0045afb0 f   libcpmtd:string.obj
 0001:0005a030       ??0out_of_range@std@@QAE@ABV?$basic_string@DU?$char_traits@D@std@@V?$allocator@D@2@@1@@Z 0045b030 f i libcpmtd:string.obj
 0001:0005a060       ??1out_of_range@std@@UAE@XZ 0045b060 f i libcpmtd:string.obj
 0001:0005a080       ??_Gout_of_range@std@@UAEPAXI@Z 0045b080 f i libcpmtd:string.obj
 0001:0005a080       ??_Eout_of_range@std@@UAEPAXI@Z 0045b080 f i libcpmtd:string.obj
 0001:0005a0b0       ??0out_of_range@std@@QAE@ABV01@@Z 0045b0b0 f i libcpmtd:string.obj
 0001:0005a0e0       ?_Xinvarg@_String_base@std@@SAXXZ 0045b0e0 f   libcpmtd:string.obj
 0001:0005a160       ??0invalid_argument@std@@QAE@ABV?$basic_string@DU?$char_traits@D@std@@V?$allocator@D@2@@1@@Z 0045b160 f i libcpmtd:string.obj
 0001:0005a190       ??1invalid_argument@std@@UAE@XZ 0045b190 f i libcpmtd:string.obj
 0001:0005a1b0       ??_Einvalid_argument@std@@UAEPAXI@Z 0045b1b0 f i libcpmtd:string.obj
 0001:0005a1b0       ??_Ginvalid_argument@std@@UAEPAXI@Z 0045b1b0 f i libcpmtd:string.obj
 0001:0005a1e0       ??0invalid_argument@std@@QAE@ABV01@@Z 0045b1e0 f i libcpmtd:string.obj
 0001:0005a210       ?_Debug_message@std@@YAXPBD0@Z 0045b210 f   libcpmtd:stdthrow.obj
 0001:0005a280       ?_Debug_message@std@@YAXPB_W0I@Z 0045b280 f   libcpmtd:stdthrow.obj
 0001:0005a2b0       ?_Debug_message@std@@YAXPBG0I@Z 0045b2b0 f   libcpmtd:stdthrow.obj
 0001:0005a2d0       ?_Throw@std@@YAXABVexception@stdext@@@Z 0045b2d0 f   libcpmtd:stdthrow.obj
 0001:0005a300       __Once                     0045b300 f   libcpmtd:xmtx.obj
 0001:0005a360       __Mtxinit                  0045b360 f   libcpmtd:xmtx.obj
 0001:0005a380       __Mtxdst                   0045b380 f   libcpmtd:xmtx.obj
 0001:0005a3a0       __Mtxlock                  0045b3a0 f   libcpmtd:xmtx.obj
 0001:0005a3c0       __Mtxunlock                0045b3c0 f   libcpmtd:xmtx.obj
 0001:0005a3d2       _RtlUnwind@16              0045b3d2 f   kernel32:KERNEL32.dll
 0001:0005a3d8       _RaiseException@16         0045b3d8 f   kernel32:KERNEL32.dll
 0001:0005a3de       _GetSystemTimeAsFileTime@4 0045b3de f   kernel32:KERNEL32.dll
 0001:0005a3e4       _TerminateProcess@8        0045b3e4 f   kernel32:KERNEL32.dll
 0001:0005a3ea       _GetCurrentProcess@0       0045b3ea f   kernel32:KERNEL32.dll
 0001:0005a3f0       _UnhandledExceptionFilter@4 0045b3f0 f   kernel32:KERNEL32.dll
 0001:0005a3f6       _SetUnhandledExceptionFilter@4 0045b3f6 f   kernel32:KERNEL32.dll
 0001:0005a3fc       _IsDebuggerPresent@0       0045b3fc f   kernel32:KERNEL32.dll
 0001:0005a402       _GetModuleFileNameW@12     0045b402 f   kernel32:KERNEL32.dll
 0001:0005a408       _GetCommandLineA@0         0045b408 f   kernel32:KERNEL32.dll
 0001:0005a40e       _GetStartupInfoA@4         0045b40e f   kernel32:KERNEL32.dll
 0001:0005a414       _GetProcAddress@8          0045b414 f   kernel32:KERNEL32.dll
 0001:0005a41a       _WideCharToMultiByte@32    0045b41a f   kernel32:KERNEL32.dll
 0001:0005a420       _MultiByteToWideChar@24    0045b420 f   kernel32:KERNEL32.dll
 0001:0005a426       _lstrlenA@4                0045b426 f   kernel32:KERNEL32.dll
 0001:0005a42c       _LoadLibraryA@4            0045b42c f   kernel32:KERNEL32.dll
 0001:0005a432       _TlsGetValue@4             0045b432 f   kernel32:KERNEL32.dll
 0001:0005a438       _GetModuleHandleW@4        0045b438 f   kernel32:KERNEL32.dll
 0001:0005a43e       _TlsAlloc@0                0045b43e f   kernel32:KERNEL32.dll
 0001:0005a444       _TlsSetValue@8             0045b444 f   kernel32:KERNEL32.dll
 0001:0005a44a       _GetCurrentThreadId@0      0045b44a f   kernel32:KERNEL32.dll
 0001:0005a450       _TlsFree@4                 0045b450 f   kernel32:KERNEL32.dll
 0001:0005a456       _InterlockedIncrement@4    0045b456 f   kernel32:KERNEL32.dll
 0001:0005a45c       _SetLastError@4            0045b45c f   kernel32:KERNEL32.dll
 0001:0005a462       _GetLastError@0            0045b462 f   kernel32:KERNEL32.dll
 0001:0005a468       _InterlockedDecrement@4    0045b468 f   kernel32:KERNEL32.dll
 0001:0005a46e       _GetCurrentThread@0        0045b46e f   kernel32:KERNEL32.dll
 0001:0005a474       _DeleteCriticalSection@4   0045b474 f   kernel32:KERNEL32.dll
 0001:0005a47a       _EnterCriticalSection@4    0045b47a f   kernel32:KERNEL32.dll
 0001:0005a480       _LeaveCriticalSection@4    0045b480 f   kernel32:KERNEL32.dll
 0001:0005a486       _FatalAppExitA@8           0045b486 f   kernel32:KERNEL32.dll
 0001:0005a48c       _HeapValidate@12           0045b48c f   kernel32:KERNEL32.dll
 0001:0005a492       _IsBadReadPtr@8            0045b492 f   kernel32:KERNEL32.dll
 0001:0005a498       _GetStdHandle@4            0045b498 f   kernel32:KERNEL32.dll
 0001:0005a49e       _WriteFile@20              0045b49e f   kernel32:KERNEL32.dll
 0001:0005a4a4       _WriteConsoleW@20          0045b4a4 f   kernel32:KERNEL32.dll
 0001:0005a4aa       _GetFileType@4             0045b4aa f   kernel32:KERNEL32.dll
 0001:0005a4b0       _OutputDebugStringW@4      0045b4b0 f   kernel32:KERNEL32.dll
 0001:0005a4b6       _Sleep@4                   0045b4b6 f   kernel32:KERNEL32.dll
 0001:0005a4bc       _ExitProcess@4             0045b4bc f   kernel32:KERNEL32.dll
 0001:0005a4c2       _SetConsoleCtrlHandler@8   0045b4c2 f   kernel32:KERNEL32.dll
 0001:0005a4c8       _LoadLibraryW@4            0045b4c8 f   kernel32:KERNEL32.dll
 0001:0005a4ce       _QueryPerformanceCounter@4 0045b4ce f   kernel32:KERNEL32.dll
 0001:0005a4d4       _GetCurrentProcessId@0     0045b4d4 f   kernel32:KERNEL32.dll
 0001:0005a4da       _GetModuleFileNameA@12     0045b4da f   kernel32:KERNEL32.dll
 0001:0005a4e0       _FreeEnvironmentStringsA@4 0045b4e0 f   kernel32:KERNEL32.dll
 0001:0005a4e6       _GetEnvironmentStrings@0   0045b4e6 f   kernel32:KERNEL32.dll
 0001:0005a4ec       _FreeEnvironmentStringsW@4 0045b4ec f   kernel32:KERNEL32.dll
 0001:0005a4f2       _GetEnvironmentStringsW@0  0045b4f2 f   kernel32:KERNEL32.dll
 0001:0005a4f8       _SetHandleCount@4          0045b4f8 f   kernel32:KERNEL32.dll
 0001:0005a4fe       _HeapDestroy@4             0045b4fe f   kernel32:KERNEL32.dll
 0001:0005a504       _HeapCreate@12             0045b504 f   kernel32:KERNEL32.dll
 0001:0005a50a       _HeapFree@12               0045b50a f   kernel32:KERNEL32.dll
 0001:0005a510       _VirtualFree@12            0045b510 f   kernel32:KERNEL32.dll
 0001:0005a516       _GetACP@0                  0045b516 f   kernel32:KERNEL32.dll
 0001:0005a51c       _GetOEMCP@0                0045b51c f   kernel32:KERNEL32.dll
 0001:0005a522       _GetCPInfo@8               0045b522 f   kernel32:KERNEL32.dll
 0001:0005a528       _IsValidCodePage@4         0045b528 f   kernel32:KERNEL32.dll
 0001:0005a52e       _HeapAlloc@12              0045b52e f   kernel32:KERNEL32.dll
 0001:0005a534       _GetProcessHeap@0          0045b534 f   kernel32:KERNEL32.dll
 0001:0005a53a       _VirtualQuery@12           0045b53a f   kernel32:KERNEL32.dll
 0001:0005a540       _FreeLibrary@4             0045b540 f   kernel32:KERNEL32.dll
 0001:0005a546       _InitializeCriticalSectionAndSpinCount@8 0045b546 f   kernel32:KERNEL32.dll
 0001:0005a54c       _HeapSize@12               0045b54c f   kernel32:KERNEL32.dll
 0001:0005a552       _HeapReAlloc@16            0045b552 f   kernel32:KERNEL32.dll
 0001:0005a558       _VirtualAlloc@16           0045b558 f   kernel32:KERNEL32.dll
 0001:0005a55e       _SetFilePointer@16         0045b55e f   kernel32:KERNEL32.dll
 0001:0005a564       _GetConsoleCP@0            0045b564 f   kernel32:KERNEL32.dll
 0001:0005a56a       _GetConsoleMode@8          0045b56a f   kernel32:KERNEL32.dll
 0001:0005a570       _InterlockedExchange@8     0045b570 f   kernel32:KERNEL32.dll
 0001:0005a576       _LCMapStringA@24           0045b576 f   kernel32:KERNEL32.dll
 0001:0005a57c       _LCMapStringW@24           0045b57c f   kernel32:KERNEL32.dll
 0001:0005a582       _GetStringTypeA@20         0045b582 f   kernel32:KERNEL32.dll
 0001:0005a588       _GetStringTypeW@16         0045b588 f   kernel32:KERNEL32.dll
 0001:0005a58e       _GetTimeFormatA@24         0045b58e f   kernel32:KERNEL32.dll
 0001:0005a594       _GetDateFormatA@24         0045b594 f   kernel32:KERNEL32.dll
 0001:0005a59a       _GetLocaleInfoA@16         0045b59a f   kernel32:KERNEL32.dll
 0001:0005a5a0       _IsValidLocale@8           0045b5a0 f   kernel32:KERNEL32.dll
 0001:0005a5a6       _EnumSystemLocalesA@8      0045b5a6 f   kernel32:KERNEL32.dll
 0001:0005a5ac       _GetUserDefaultLCID@0      0045b5ac f   kernel32:KERNEL32.dll
 0001:0005a5b2       _SetStdHandle@8            0045b5b2 f   kernel32:KERNEL32.dll
 0001:0005a5b8       _WriteConsoleA@20          0045b5b8 f   kernel32:KERNEL32.dll
 0001:0005a5be       _GetConsoleOutputCP@0      0045b5be f   kernel32:KERNEL32.dll
 0001:0005a5c4       _GetLocaleInfoW@16         0045b5c4 f   kernel32:KERNEL32.dll
 0001:0005a5ca       _GetTimeZoneInformation@4  0045b5ca f   kernel32:KERNEL32.dll
 0001:0005a5d0       _CreateFileA@28            0045b5d0 f   kernel32:KERNEL32.dll
 0001:0005a5d6       _CloseHandle@4             0045b5d6 f   kernel32:KERNEL32.dll
 0001:0005a5dc       _FlushFileBuffers@4        0045b5dc f   kernel32:KERNEL32.dll
 0001:0005a5e2       _CompareStringA@24         0045b5e2 f   kernel32:KERNEL32.dll
 0001:0005a5e8       _CompareStringW@24         0045b5e8 f   kernel32:KERNEL32.dll
 0001:0005a5ee       _SetEnvironmentVariableA@8 0045b5ee f   kernel32:KERNEL32.dll
 0001:0005a5f4       _InitializeCriticalSection@4 0045b5f4 f   kernel32:KERNEL32.dll
 0001:0005a600       _fputs                     0045b600 f   LIBCMTD:fputs.obj
 0001:0005a8a0       _fwrite                    0045b8a0 f   LIBCMTD:fwrite.obj
 0001:0005a9b0       __fwrite_nolock            0045b9b0 f   LIBCMTD:fwrite.obj
 0002:00000000       ___xc_a                    00474000     LIBCMTD:crt0init.obj
 0002:00000208       ___xc_z                    00474208     LIBCMTD:crt0init.obj
 0002:0000030c       ___xi_a                    0047430c     LIBCMTD:crt0init.obj
 0002:0000062c       ___xi_z                    0047462c     LIBCMTD:crt0init.obj
 0002:00000730       ___xp_a                    00474730     LIBCMTD:crt0init.obj
 0002:00000a44       ___xp_z                    00474a44     LIBCMTD:crt0init.obj
 0002:00000b48       ___xt_a                    00474b48     LIBCMTD:crt0init.obj
 0002:00000c4c       ___xt_z                    00474c4c     LIBCMTD:crt0init.obj
 0002:00000d6c       __real@00000000            00474d6c     Camera.obj
 0002:00000d70       __real@bf800000            00474d70     Camera.obj
 0002:00000d74       __real@447a0000            00474d74     Camera.obj
 0002:00000d78       __real@3f800000            00474d78     Camera.obj
 0002:00000d7c       __real@3faccccd            00474d7c     Camera.obj
 0002:00000d80       __real@0000000000000000    00474d80     Camera.obj
 0002:00000d8c       __real@40c90fdb            00474d8c     Camera.obj
 0002:00000d90       __real@3fb33333            00474d90     Camera.obj
 0002:00000d98       __real@3ff6666660000000    00474d98     Camera.obj
 0002:00000da4       __real@bfb33333            00474da4     Camera.obj
 0002:00000da8       __real@bff6666660000000    00474da8     Camera.obj
 0002:000022b6       ?_Value@?$_Is_swap_move@U_Swap_move_tag@std@@@std@@2_NB 004762b6     intro.obj
 0002:000022b8       ?collate@?$_Locbase@H@std@@2HB 004762b8     intro.obj
 0002:000022bc       ?ctype@?$_Locbase@H@std@@2HB 004762bc     intro.obj
 0002:000022c0       ?monetary@?$_Locbase@H@std@@2HB 004762c0     intro.obj
 0002:000022c4       ?numeric@?$_Locbase@H@std@@2HB 004762c4     intro.obj
 0002:000022c8       ?time@?$_Locbase@H@std@@2HB 004762c8     intro.obj
 0002:000022cc       ?messages@?$_Locbase@H@std@@2HB 004762cc     intro.obj
 0002:000022d0       ?all@?$_Locbase@H@std@@2HB 004762d0     intro.obj
 0002:000022d4       ?none@?$_Locbase@H@std@@2HB 004762d4     intro.obj
 0002:000022d8       ?table_size@?$ctype@D@std@@2IB 004762d8     intro.obj
 0002:000022dc       ?skipws@?$_Iosb@H@std@@2W4_Fmtflags@12@B 004762dc     intro.obj
 0002:000022e0       ?unitbuf@?$_Iosb@H@std@@2W4_Fmtflags@12@B 004762e0     intro.obj
 0002:000022e4       ?uppercase@?$_Iosb@H@std@@2W4_Fmtflags@12@B 004762e4     intro.obj
 0002:000022e8       ?showbase@?$_Iosb@H@std@@2W4_Fmtflags@12@B 004762e8     intro.obj
 0002:000022ec       ?showpoint@?$_Iosb@H@std@@2W4_Fmtflags@12@B 004762ec     intro.obj
 0002:000022f0       ?showpos@?$_Iosb@H@std@@2W4_Fmtflags@12@B 004762f0     intro.obj
 0002:000022f4       ?left@?$_Iosb@H@std@@2W4_Fmtflags@12@B 004762f4     intro.obj
 0002:000022f8       ?right@?$_Iosb@H@std@@2W4_Fmtflags@12@B 004762f8     intro.obj
 0002:000022fc       ?internal@?$_Iosb@H@std@@2W4_Fmtflags@12@B 004762fc     intro.obj
 0002:00002300       ?dec@?$_Iosb@H@std@@2W4_Fmtflags@12@B 00476300     intro.obj
 0002:00002304       ?oct@?$_Iosb@H@std@@2W4_Fmtflags@12@B 00476304     intro.obj
 0002:00002308       ?hex@?$_Iosb@H@std@@2W4_Fmtflags@12@B 00476308     intro.obj
 0002:0000230c       ?scientific@?$_Iosb@H@std@@2W4_Fmtflags@12@B 0047630c     intro.obj
 0002:00002310       ?fixed@?$_Iosb@H@std@@2W4_Fmtflags@12@B 00476310     intro.obj
 0002:00002314       ?hexfloat@?$_Iosb@H@std@@2W4_Fmtflags@12@B 00476314     intro.obj
 0002:00002318       ?boolalpha@?$_Iosb@H@std@@2W4_Fmtflags@12@B 00476318     intro.obj
 0002:0000231c       ?_Stdio@?$_Iosb@H@std@@2W4_Fmtflags@12@B 0047631c     intro.obj
 0002:00002320       ?adjustfield@?$_Iosb@H@std@@2W4_Fmtflags@12@B 00476320     intro.obj
 0002:00002324       ?basefield@?$_Iosb@H@std@@2W4_Fmtflags@12@B 00476324     intro.obj
 0002:00002328       ?floatfield@?$_Iosb@H@std@@2W4_Fmtflags@12@B 00476328     intro.obj
 0002:0000232c       ?goodbit@?$_Iosb@H@std@@2W4_Iostate@12@B 0047632c     intro.obj
 0002:00002330       ?eofbit@?$_Iosb@H@std@@2W4_Iostate@12@B 00476330     intro.obj
 0002:00002334       ?failbit@?$_Iosb@H@std@@2W4_Iostate@12@B 00476334     intro.obj
 0002:00002338       ?badbit@?$_Iosb@H@std@@2W4_Iostate@12@B 00476338     intro.obj
 0002:0000233c       ?_Hardfail@?$_Iosb@H@std@@2W4_Iostate@12@B 0047633c     intro.obj
 0002:00002340       ?in@?$_Iosb@H@std@@2W4_Openmode@12@B 00476340     intro.obj
 0002:00002344       ?out@?$_Iosb@H@std@@2W4_Openmode@12@B 00476344     intro.obj
 0002:00002348       ?ate@?$_Iosb@H@std@@2W4_Openmode@12@B 00476348     intro.obj
 0002:0000234c       ?app@?$_Iosb@H@std@@2W4_Openmode@12@B 0047634c     intro.obj
 0002:00002350       ?trunc@?$_Iosb@H@std@@2W4_Openmode@12@B 00476350     intro.obj
 0002:00002354       ?_Nocreate@?$_Iosb@H@std@@2W4_Openmode@12@B 00476354     intro.obj
 0002:00002358       ?_Noreplace@?$_Iosb@H@std@@2W4_Openmode@12@B 00476358     intro.obj
 0002:0000235c       ?binary@?$_Iosb@H@std@@2W4_Openmode@12@B 0047635c     intro.obj
 0002:00002360       ?beg@?$_Iosb@H@std@@2W4_Seekdir@12@B 00476360     intro.obj
 0002:00002364       ?cur@?$_Iosb@H@std@@2W4_Seekdir@12@B 00476364     intro.obj
 0002:00002368       ?end@?$_Iosb@H@std@@2W4_Seekdir@12@B 00476368     intro.obj
 0002:00002370       __real@3f847ae140000000    00476370     intro.obj
 0002:00002380       __real@3ff0000000000000    00476380     intro.obj
 0002:0000238c       __real@3e800000            0047638c     intro.obj
 0002:00002390       ?npos@?$basic_string@DU?$char_traits@D@std@@V?$allocator@D@2@@std@@2IB 00476390     intro.obj
 0002:00002398       ??_C@_0EF@ENAOALNF@c?3?2Program?5Files?5?$CIx86?$CJ?2Microsoft@ 00476398     intro.obj
 0002:000023f0       ??_7bad_alloc@std@@6B@     004763f0     intro.obj
 0002:00002400       ??_C@_1IM@ILJNOKF@?$AAc?$AA?3?$AA?2?$AAP?$AAr?$AAo?$AAg?$AAr?$AAa?$AAm?$AA?5?$AAF?$AAi?$AAl?$AAe?$AAs?$AA?5?$AA?$CI?$AAx?$AA8?$AA6?$AA?$CJ?$AA?2?$AAM?$AAi?$AAc?$AAr?$AAo?$AAs?$AAo?$AAf?$AAt@ 00476400     intro.obj
 0002:000024a8       ??_C@_1CK@EOPGIILJ@?$AAi?$AAn?$AAv?$AAa?$AAl?$AAi?$AAd?$AA?5?$AAn?$AAu?$AAl?$AAl?$AA?5?$AAp?$AAo?$AAi?$AAn?$AAt?$AAe?$AAr?$AA?$AA@ 004764a8     intro.obj
 0002:00002530       __real@3f50624de0000000    00476530     main_deb.obj
 0002:00002540       __real@404e000000000000    00476540     main_deb.obj
 0002:00002572       ?value@?$integral_constant@_N$0A@@tr1@std@@2_NB 00476572     Maze.obj
 0002:00002573       ?value@?$integral_constant@_N$00@tr1@std@@2_NB 00476573     Maze.obj
 0002:00002574       ??_C@_1DC@POOIKBAO@?$AAI?$AAT?$AAE?$AAR?$AAA?$AAT?$AAO?$AAR?$AA?5?$AAL?$AAI?$AAS?$AAT?$AA?5?$AAC?$AAO?$AAR?$AAR?$AAU?$AAP?$AAT?$AAE?$AAD?$AA?$CB?$AA?$AA@ 00476574     Maze.obj
 0002:000025b0       ??_C@_1IO@ODJJMCKO@?$AAc?$AA?3?$AA?2?$AAP?$AAr?$AAo?$AAg?$AAr?$AAa?$AAm?$AA?5?$AAF?$AAi?$AAl?$AAe?$AAs?$AA?5?$AA?$CI?$AAx?$AA8?$AA6?$AA?$CJ?$AA?2?$AAM?$AAi?$AAc?$AAr?$AAo?$AAs?$AAo?$AAf?$AAt@ 004765b0     Maze.obj
 0002:00002660       ??_C@_1II@IKMBDMO@?$AAc?$AA?3?$AA?2?$AAP?$AAr?$AAo?$AAg?$AAr?$AAa?$AAm?$AA?5?$AAF?$AAi?$AAl?$AAe?$AAs?$AA?5?$AA?$CI?$AAx?$AA8?$AA6?$AA?$CJ?$AA?2?$AAM?$AAi?$AAc?$AAr?$AAo?$AAs?$AAo?$AAf?$AAt@ 00476660     Maze.obj
 0002:00002704       ??_C@_1CK@POGJDOKA@?$AA?$CI?$AA?$CC?$AA_?$AAP?$AAo?$AAs?$AA?5?$AA?$DM?$AA?5?$AAs?$AAi?$AAz?$AAe?$AA?$CI?$AA?$CJ?$AA?$CC?$AA?0?$AA?5?$AA0?$AA?$CJ?$AA?$AA@ 00476704     Maze.obj
 0002:00002738       ??_C@_1BO@MEPPHOO@?$AA?$CC?$AAo?$AAu?$AAt?$AA?5?$AAo?$AAf?$AA?5?$AAr?$AAa?$AAn?$AAg?$AAe?$AA?$CC?$AA?$AA@ 00476738     Maze.obj
 0002:00002760       ??_C@_1BHI@ILBACDIH@?$AAs?$AAt?$AAd?$AA?3?$AA?3?$AAv?$AAe?$AAc?$AAt?$AAo?$AAr?$AA?$DM?$AAc?$AAl?$AAa?$AAs?$AAs?$AA?5?$AAs?$AAt?$AAd?$AA?3?$AA?3?$AAs?$AAe?$AAt?$AA?$DM?$AAi?$AAn?$AAt?$AA?0?$AAs@ 00476760     Maze.obj
 0002:00002928       ??_C@_1FG@CMLDHNON@?$AA?$CI?$AA?$CC?$AAS?$AAt?$AAa?$AAn?$AAd?$AAa?$AAr?$AAd?$AA?5?$AAC?$AA?$CL?$AA?$CL?$AA?5?$AAL?$AAi?$AAb?$AAr?$AAa?$AAr?$AAi?$AAe?$AAs?$AA?5?$AAO?$AAu?$AAt?$AA?5?$AAo?$AAf?$AA?5@ 00476928     Maze.obj
 0002:00002990       ??_C@_1DM@LHGCHCBA@?$AAv?$AAe?$AAc?$AAt?$AAo?$AAr?$AA?5?$AAs?$AAu?$AAb?$AAs?$AAc?$AAr?$AAi?$AAp?$AAt?$AA?5?$AAo?$AAu?$AAt?$AA?5?$AAo?$AAf?$AA?5?$AAr?$AAa?$AAn?$AAg?$AAe?$AA?$AA@ 00476990     Maze.obj
 0002:000029d8       ??_C@_1IK@JFDBNHLD@?$AAc?$AA?3?$AA?2?$AAP?$AAr?$AAo?$AAg?$AAr?$AAa?$AAm?$AA?5?$AAF?$AAi?$AAl?$AAe?$AAs?$AA?5?$AA?$CI?$AAx?$AA8?$AA6?$AA?$CJ?$AA?2?$AAM?$AAi?$AAc?$AAr?$AAo?$AAs?$AAo?$AAf?$AAt@ 004769d8     Maze.obj
 0002:00002a80       ??_C@_1EI@HGIDLLCM@?$AAv?$AAe?$AAc?$AAt?$AAo?$AAr?$AA?5?$AAe?$AAr?$AAa?$AAs?$AAe?$AA?5?$AAi?$AAt?$AAe?$AAr?$AAa?$AAt?$AAo?$AAr?$AA?5?$AAo?$AAu?$AAt?$AAs?$AAi?$AAd?$AAe?$AA?5?$AAr?$AAa@ 00476a80     Maze.obj
 0002:00002ad8       ??_C@_1JC@HNLLLODK@?$AAs?$AAt?$AAd?$AA?3?$AA?3?$AAv?$AAe?$AAc?$AAt?$AAo?$AAr?$AA?$DM?$AAs?$AAt?$AAr?$AAu?$AAc?$AAt?$AA?5?$AAw?$AAa?$AAl?$AAl?$AA?0?$AAc?$AAl?$AAa?$AAs?$AAs?$AA?5?$AAs?$AAt@ 00476ad8     Maze.obj
 0002:00002b88       ??_C@_0BE@JONHPENG@map?1set?$DMT?$DO?5too?5long?$AA@ 00476b88     Maze.obj
 0002:00002ba4       ??_7length_error@std@@6B@  00476ba4     Maze.obj
 0002:00002bb4       ??_7logic_error@std@@6B@   00476bb4     Maze.obj
 0002:00002bc0       ??_C@_1CG@JNLFBNGN@?$AA?$CC?$AAi?$AAn?$AAv?$AAa?$AAl?$AAi?$AAd?$AA?5?$AAa?$AAr?$AAg?$AAu?$AAm?$AAe?$AAn?$AAt?$AA?$CC?$AA?$AA@ 00476bc0     Maze.obj
 0002:00002bf0       ??_C@_1PC@BKKCAHFI@?$AAs?$AAt?$AAd?$AA?3?$AA?3?$AA_?$AAT?$AAr?$AAe?$AAe?$AA?$DM?$AAc?$AAl?$AAa?$AAs?$AAs?$AA?5?$AAs?$AAt?$AAd?$AA?3?$AA?3?$AA_?$AAT?$AAs?$AAe?$AAt?$AA_?$AAt?$AAr?$AAa?$AAi@ 00476bf0     Maze.obj
 0002:00002d18       ??_C@_1FO@OCPOOAIA@?$AA?$CI?$AA?$CC?$AAS?$AAt?$AAa?$AAn?$AAd?$AAa?$AAr?$AAd?$AA?5?$AAC?$AA?$CL?$AA?$CL?$AA?5?$AAL?$AAi?$AAb?$AAr?$AAa?$AAr?$AAi?$AAe?$AAs?$AA?5?$AAI?$AAn?$AAv?$AAa?$AAl?$AAi?$AAd@ 00476d18     Maze.obj
 0002:00002d88       ??_C@_1DO@CFEEPGGJ@?$AAm?$AAa?$AAp?$AA?1?$AAs?$AAe?$AAt?$AA?5?$AAi?$AAt?$AAe?$AAr?$AAa?$AAt?$AAo?$AAr?$AAs?$AA?5?$AAi?$AAn?$AAc?$AAo?$AAm?$AAp?$AAa?$AAt?$AAi?$AAb?$AAl?$AAe?$AA?$AA@ 00476d88     Maze.obj
 0002:00002dd8       ??_C@_1EK@EEHFMKDC@?$AAv?$AAe?$AAc?$AAt?$AAo?$AAr?$AA?5?$AAi?$AAn?$AAs?$AAe?$AAr?$AAt?$AA?5?$AAi?$AAt?$AAe?$AAr?$AAa?$AAt?$AAo?$AAr?$AA?5?$AAo?$AAu?$AAt?$AAs?$AAi?$AAd?$AAe?$AA?5?$AAr@ 00476dd8     Maze.obj
 0002:00002e30       ??_C@_0BD@OLBABOEK@vector?$DMT?$DO?5too?5long?$AA@ 00476e30     Maze.obj
 0002:00002e48       ??_C@_1BKO@EEMINODL@?$AAs?$AAt?$AAd?$AA?3?$AA?3?$AA_?$AAV?$AAe?$AAc?$AAt?$AAo?$AAr?$AA_?$AAc?$AAo?$AAn?$AAs?$AAt?$AA_?$AAi?$AAt?$AAe?$AAr?$AAa?$AAt?$AAo?$AAr?$AA?$DM?$AAc?$AAl?$AAa?$AAs@ 00476e48     Maze.obj
 0002:00003050       ??_C@_1NK@JLHOCNGO@?$AA?$CI?$AA?$CC?$AA_?$AAP?$AAv?$AAe?$AAc?$AAt?$AAo?$AAr?$AA?5?$AA?$DN?$AA?$DN?$AA?5?$AAN?$AAU?$AAL?$AAL?$AA?5?$AA?$HM?$AA?$HM?$AA?5?$AA?$CI?$AA?$CI?$AA?$CI?$AA_?$AAM?$AAy?$AAv?$AAe?$AAc?$AA?5@ 00477050     Maze.obj
 0002:00003158       ??_C@_1BAC@KBDNDJPK@?$AA?$CI?$AA?$CC?$AA_?$AAM?$AAy?$AAp?$AAt?$AAr?$AA?5?$AA?$CL?$AA?5?$AA_?$AAO?$AAf?$AAf?$AA?5?$AA?$DM?$AA?$DN?$AA?5?$AA?$CI?$AA?$CI?$AA_?$AAM?$AAy?$AAv?$AAe?$AAc?$AA?5?$AA?$CK?$AA?$CJ?$AA?$CI?$AAt@ 00477158     Maze.obj
 0002:00003290       ??_C@_1BJI@GDKEJIID@?$AAs?$AAt?$AAd?$AA?3?$AA?3?$AA_?$AAV?$AAe?$AAc?$AAt?$AAo?$AAr?$AA_?$AAc?$AAo?$AAn?$AAs?$AAt?$AA_?$AAi?$AAt?$AAe?$AAr?$AAa?$AAt?$AAo?$AAr?$AA?$DM?$AAc?$AAl?$AAa?$AAs@ 00477290     Maze.obj
 0002:0000347c       ??_C@_1DM@LBMEEJPP@?$AA?$CI?$AA?$CC?$AAt?$AAh?$AAi?$AAs?$AA?9?$AA?$DO?$AA_?$AAH?$AAa?$AAs?$AA_?$AAc?$AAo?$AAn?$AAt?$AAa?$AAi?$AAn?$AAe?$AAr?$AA?$CI?$AA?$CJ?$AA?$CC?$AA?0?$AA?5?$AA0?$AA?$CJ?$AA?$AA@ 0047747c     Maze.obj
 0002:000034c8       ??_C@_1EK@PPDBPCAN@?$AAm?$AAa?$AAp?$AA?1?$AAs?$AAe?$AAt?$AA?5?$AAe?$AAr?$AAa?$AAs?$AAe?$AA?5?$AAi?$AAt?$AAe?$AAr?$AAa?$AAt?$AAo?$AAr?$AA?5?$AAo?$AAu?$AAt?$AAs?$AAi?$AAd?$AAe?$AA?5?$AAr@ 004774c8     Maze.obj
 0002:00003520       ??_C@_1OE@BFEBKEOA@?$AAs?$AAt?$AAd?$AA?3?$AA?3?$AA_?$AAT?$AAr?$AAe?$AAe?$AA?$DM?$AAc?$AAl?$AAa?$AAs?$AAs?$AA?5?$AAs?$AAt?$AAd?$AA?3?$AA?3?$AA_?$AAT?$AAs?$AAe?$AAt?$AA_?$AAt?$AAr?$AAa?$AAi@ 00477520     Maze.obj
 0002:00003638       ??_C@_1EG@OKCGOALM@?$AAm?$AAa?$AAp?$AA?1?$AAs?$AAe?$AAt?$AA?5?$AAi?$AAt?$AAe?$AAr?$AAa?$AAt?$AAo?$AAr?$AA?5?$AAn?$AAo?$AAt?$AA?5?$AAd?$AAe?$AAc?$AAr?$AAe?$AAm?$AAe?$AAn?$AAt?$AAa?$AAb@ 00477638     Maze.obj
 0002:00003690       ??_C@_1BJA@HOFKAOCE@?$AAs?$AAt?$AAd?$AA?3?$AA?3?$AA_?$AAV?$AAe?$AAc?$AAt?$AAo?$AAr?$AA_?$AAc?$AAo?$AAn?$AAs?$AAt?$AA_?$AAi?$AAt?$AAe?$AAr?$AAa?$AAt?$AAo?$AAr?$AA?$DM?$AAc?$AAl?$AAa?$AAs@ 00477690     Maze.obj
 0002:00003870       ??_C@_1DM@HINDPMBP@?$AAv?$AAe?$AAc?$AAt?$AAo?$AAr?$AA?5?$AAi?$AAt?$AAe?$AAr?$AAa?$AAt?$AAo?$AAr?$AAs?$AA?5?$AAi?$AAn?$AAc?$AAo?$AAm?$AAp?$AAa?$AAt?$AAi?$AAb?$AAl?$AAe?$AA?$AA@ 00477870     Maze.obj
 0002:000038b8       ??_C@_1MI@MKPPMGPK@?$AAs?$AAt?$AAd?$AA?3?$AA?3?$AA_?$AAV?$AAe?$AAc?$AAt?$AAo?$AAr?$AA_?$AAc?$AAo?$AAn?$AAs?$AAt?$AA_?$AAi?$AAt?$AAe?$AAr?$AAa?$AAt?$AAo?$AAr?$AA?$DM?$AAs?$AAt?$AAr?$AAu@ 004778b8     Maze.obj
 0002:000039a8       ??_C@_1KK@IHBPMCLD@?$AAs?$AAt?$AAd?$AA?3?$AA?3?$AA_?$AAV?$AAe?$AAc?$AAt?$AAo?$AAr?$AA_?$AAc?$AAo?$AAn?$AAs?$AAt?$AA_?$AAi?$AAt?$AAe?$AAr?$AAa?$AAt?$AAo?$AAr?$AA?$DM?$AAs?$AAt?$AAr?$AAu@ 004779a8     Maze.obj
 0002:00003a78       ??_C@_1LC@FHONHJGH@?$AAs?$AAt?$AAd?$AA?3?$AA?3?$AA_?$AAV?$AAe?$AAc?$AAt?$AAo?$AAr?$AA_?$AAc?$AAo?$AAn?$AAs?$AAt?$AA_?$AAi?$AAt?$AAe?$AAr?$AAa?$AAt?$AAo?$AAr?$AA?$DM?$AAs?$AAt?$AAr?$AAu@ 00477a78     Maze.obj
 0002:00003b50       ??_C@_1OE@OEIDEBPC@?$AAs?$AAt?$AAd?$AA?3?$AA?3?$AA_?$AAT?$AAr?$AAe?$AAe?$AA?$DM?$AAc?$AAl?$AAa?$AAs?$AAs?$AA?5?$AAs?$AAt?$AAd?$AA?3?$AA?3?$AA_?$AAT?$AAs?$AAe?$AAt?$AA_?$AAt?$AAr?$AAa?$AAi@ 00477b50     Maze.obj
 0002:00003c68       ??_C@_1EG@EHJFMBHJ@?$AAm?$AAa?$AAp?$AA?1?$AAs?$AAe?$AAt?$AA?5?$AAi?$AAt?$AAe?$AAr?$AAa?$AAt?$AAo?$AAr?$AA?5?$AAn?$AAo?$AAt?$AA?5?$AAi?$AAn?$AAc?$AAr?$AAe?$AAm?$AAe?$AAn?$AAt?$AAa?$AAb@ 00477c68     Maze.obj
 0002:00003cbc       ??_C@_1CE@IGJMOCCK@?$AAi?$AAn?$AAv?$AAa?$AAl?$AAi?$AAd?$AA?5?$AAo?$AAp?$AAe?$AAr?$AAa?$AAt?$AAo?$AAr?$AA?$DM?$AA?$AA@ 00477cbc     Maze.obj
 0002:00003ce8       ??_C@_1PA@HDMKJBNA@?$AAs?$AAt?$AAd?$AA?3?$AA?3?$AA_?$AAT?$AAr?$AAe?$AAe?$AA?$DM?$AAc?$AAl?$AAa?$AAs?$AAs?$AA?5?$AAs?$AAt?$AAd?$AA?3?$AA?3?$AA_?$AAT?$AAs?$AAe?$AAt?$AA_?$AAt?$AAr?$AAa?$AAi@ 00477ce8     Maze.obj
 0002:00003e08       ??_C@_1EI@FHEHNNNM@?$AAm?$AAa?$AAp?$AA?1?$AAs?$AAe?$AAt?$AA?5?$AAi?$AAt?$AAe?$AAr?$AAa?$AAt?$AAo?$AAr?$AA?5?$AAn?$AAo?$AAt?$AA?5?$AAd?$AAe?$AAr?$AAe?$AAf?$AAe?$AAr?$AAe?$AAn?$AAc?$AAa@ 00477e08     Maze.obj
 0002:00003e60       ??_C@_1IK@OLOKFLLI@?$AAc?$AA?3?$AA?2?$AAP?$AAr?$AAo?$AAg?$AAr?$AAa?$AAm?$AA?5?$AAF?$AAi?$AAl?$AAe?$AAs?$AA?5?$AA?$CI?$AAx?$AA8?$AA6?$AA?$CJ?$AA?2?$AAM?$AAi?$AAc?$AAr?$AAo?$AAs?$AAo?$AAf?$AAt@ 00477e60     Maze.obj
 0002:00003f08       ??_C@_1CO@DGLIKNHI@?$AAi?$AAn?$AAv?$AAa?$AAl?$AAi?$AAd?$AA?5?$AAi?$AAt?$AAe?$AAr?$AAa?$AAt?$AAo?$AAr?$AA?5?$AAr?$AAa?$AAn?$AAg?$AAe?$AA?$AA@ 00477f08     Maze.obj
 0002:0000412c       _c_dfDIMouse2              0047812c     dinput8:dilib5.obj
 0002:00004334       _c_dfDIKeyboard            00478334     dinput8:dilib2.obj
 0002:0000434c       _GUID_MAX_POWER_SAVINGS    0047834c     dxguid:dxguid.obj
 0002:0000435c       _GUID_MIN_POWER_SAVINGS    0047835c     dxguid:dxguid.obj
 0002:0000436c       _GUID_TYPICAL_POWER_SAVINGS 0047836c     dxguid:dxguid.obj
 0002:0000437c       _NO_SUBGROUP_GUID          0047837c     dxguid:dxguid.obj
 0002:0000438c       _ALL_POWERSCHEMES_GUID     0047838c     dxguid:dxguid.obj
 0002:0000439c       _GUID_POWERSCHEME_PERSONALITY 0047839c     dxguid:dxguid.obj
 0002:000043ac       _GUID_ACTIVE_POWERSCHEME   004783ac     dxguid:dxguid.obj
 0002:000043bc       _GUID_VIDEO_SUBGROUP       004783bc     dxguid:dxguid.obj
 0002:000043cc       _GUID_VIDEO_POWERDOWN_TIMEOUT 004783cc     dxguid:dxguid.obj
 0002:000043dc       _GUID_VIDEO_ANNOYANCE_TIMEOUT 004783dc     dxguid:dxguid.obj
 0002:000043ec       _GUID_VIDEO_ADAPTIVE_PERCENT_INCREASE 004783ec     dxguid:dxguid.obj
 0002:000043fc       _GUID_VIDEO_DIM_TIMEOUT    004783fc     dxguid:dxguid.obj
 0002:0000440c       _GUID_VIDEO_ADAPTIVE_POWERDOWN 0047840c     dxguid:dxguid.obj
 0002:0000441c       _GUID_MONITOR_POWER_ON     0047841c     dxguid:dxguid.obj
 0002:0000442c       _GUID_DEVICE_POWER_POLICY_VIDEO_BRIGHTNESS 0047842c     dxguid:dxguid.obj
 0002:0000443c       _GUID_DEVICE_POWER_POLICY_VIDEO_DIM_BRIGHTNESS 0047843c     dxguid:dxguid.obj
 0002:0000444c       _GUID_VIDEO_CURRENT_MONITOR_BRIGHTNESS 0047844c     dxguid:dxguid.obj
 0002:0000445c       _GUID_VIDEO_ADAPTIVE_DISPLAY_BRIGHTNESS 0047845c     dxguid:dxguid.obj
 0002:0000446c       _GUID_SESSION_DISPLAY_STATE 0047846c     dxguid:dxguid.obj
 0002:0000447c       _GUID_CONSOLE_DISPLAY_STATE 0047847c     dxguid:dxguid.obj
 0002:0000448c       _GUID_ALLOW_DISPLAY_REQUIRED 0047848c     dxguid:dxguid.obj
 0002:0000449c       _GUID_DISK_SUBGROUP        0047849c     dxguid:dxguid.obj
 0002:000044ac       _GUID_DISK_POWERDOWN_TIMEOUT 004784ac     dxguid:dxguid.obj
 0002:000044bc       _GUID_DISK_BURST_IGNORE_THRESHOLD 004784bc     dxguid:dxguid.obj
 0002:000044cc       _GUID_DISK_ADAPTIVE_POWERDOWN 004784cc     dxguid:dxguid.obj
 0002:000044dc       _GUID_SLEEP_SUBGROUP       004784dc     dxguid:dxguid.obj
 0002:000044ec       _GUID_SLEEP_IDLE_THRESHOLD 004784ec     dxguid:dxguid.obj
 0002:000044fc       _GUID_STANDBY_TIMEOUT      004784fc     dxguid:dxguid.obj
 0002:0000450c       _GUID_UNATTEND_SLEEP_TIMEOUT 0047850c     dxguid:dxguid.obj
 0002:0000451c       _GUID_HIBERNATE_TIMEOUT    0047851c     dxguid:dxguid.obj
 0002:0000452c       _GUID_HIBERNATE_FASTS4_POLICY 0047852c     dxguid:dxguid.obj
 0002:0000453c       _GUID_CRITICAL_POWER_TRANSITION 0047853c     dxguid:dxguid.obj
 0002:0000454c       _GUID_SYSTEM_AWAYMODE      0047854c     dxguid:dxguid.obj
 0002:0000455c       _GUID_ALLOW_AWAYMODE       0047855c     dxguid:dxguid.obj
 0002:0000456c       _GUID_ALLOW_STANDBY_STATES 0047856c     dxguid:dxguid.obj
 0002:0000457c       _GUID_ALLOW_RTC_WAKE       0047857c     dxguid:dxguid.obj
 0002:0000458c       _GUID_ALLOW_SYSTEM_REQUIRED 0047858c     dxguid:dxguid.obj
 0002:0000459c       _GUID_SYSTEM_BUTTON_SUBGROUP 0047859c     dxguid:dxguid.obj
 0002:000045ac       _GUID_POWERBUTTON_ACTION   004785ac     dxguid:dxguid.obj
 0002:000045bc       _GUID_POWERBUTTON_ACTION_FLAGS 004785bc     dxguid:dxguid.obj
 0002:000045cc       _GUID_SLEEPBUTTON_ACTION   004785cc     dxguid:dxguid.obj
 0002:000045dc       _GUID_SLEEPBUTTON_ACTION_FLAGS 004785dc     dxguid:dxguid.obj
 0002:000045ec       _GUID_USERINTERFACEBUTTON_ACTION 004785ec     dxguid:dxguid.obj
 0002:000045fc       _GUID_LIDCLOSE_ACTION      004785fc     dxguid:dxguid.obj
 0002:0000460c       _GUID_LIDCLOSE_ACTION_FLAGS 0047860c     dxguid:dxguid.obj
 0002:0000461c       _GUID_LIDOPEN_POWERSTATE   0047861c     dxguid:dxguid.obj
 0002:0000462c       _GUID_BATTERY_SUBGROUP     0047862c     dxguid:dxguid.obj
 0002:0000463c       _GUID_BATTERY_DISCHARGE_ACTION_0 0047863c     dxguid:dxguid.obj
 0002:0000464c       _GUID_BATTERY_DISCHARGE_LEVEL_0 0047864c     dxguid:dxguid.obj
 0002:0000465c       _GUID_BATTERY_DISCHARGE_FLAGS_0 0047865c     dxguid:dxguid.obj
 0002:0000466c       _GUID_BATTERY_DISCHARGE_ACTION_1 0047866c     dxguid:dxguid.obj
 0002:0000467c       _GUID_BATTERY_DISCHARGE_LEVEL_1 0047867c     dxguid:dxguid.obj
 0002:0000468c       _GUID_BATTERY_DISCHARGE_FLAGS_1 0047868c     dxguid:dxguid.obj
 0002:0000469c       _GUID_BATTERY_DISCHARGE_ACTION_2 0047869c     dxguid:dxguid.obj
 0002:000046ac       _GUID_BATTERY_DISCHARGE_LEVEL_2 004786ac     dxguid:dxguid.obj
 0002:000046bc       _GUID_BATTERY_DISCHARGE_FLAGS_2 004786bc     dxguid:dxguid.obj
 0002:000046cc       _GUID_BATTERY_DISCHARGE_ACTION_3 004786cc     dxguid:dxguid.obj
 0002:000046dc       _GUID_BATTERY_DISCHARGE_LEVEL_3 004786dc     dxguid:dxguid.obj
 0002:000046ec       _GUID_BATTERY_DISCHARGE_FLAGS_3 004786ec     dxguid:dxguid.obj
 0002:000046fc       _GUID_PROCESSOR_SETTINGS_SUBGROUP 004786fc     dxguid:dxguid.obj
 0002:0000470c       _GUID_PROCESSOR_THROTTLE_POLICY 0047870c     dxguid:dxguid.obj
 0002:0000471c       _GUID_PROCESSOR_THROTTLE_MAXIMUM 0047871c     dxguid:dxguid.obj
 0002:0000472c       _GUID_PROCESSOR_THROTTLE_MINIMUM 0047872c     dxguid:dxguid.obj
 0002:0000473c       _GUID_PROCESSOR_ALLOW_THROTTLING 0047873c     dxguid:dxguid.obj
 0002:0000474c       _GUID_PROCESSOR_IDLESTATE_POLICY 0047874c     dxguid:dxguid.obj
 0002:0000475c       _GUID_PROCESSOR_PERFSTATE_POLICY 0047875c     dxguid:dxguid.obj
 0002:0000476c       _GUID_PROCESSOR_PERF_INCREASE_THRESHOLD 0047876c     dxguid:dxguid.obj
 0002:0000477c       _GUID_PROCESSOR_PERF_DECREASE_THRESHOLD 0047877c     dxguid:dxguid.obj
 0002:0000478c       _GUID_PROCESSOR_PERF_INCREASE_POLICY 0047878c     dxguid:dxguid.obj
 0002:0000479c       _GUID_PROCESSOR_PERF_DECREASE_POLICY 0047879c     dxguid:dxguid.obj
 0002:000047ac       _GUID_PROCESSOR_PERF_INCREASE_TIME 004787ac     dxguid:dxguid.obj
 0002:000047bc       _GUID_PROCESSOR_PERF_DECREASE_TIME 004787bc     dxguid:dxguid.obj
 0002:000047cc       _GUID_PROCESSOR_PERF_TIME_CHECK 004787cc     dxguid:dxguid.obj
 0002:000047dc       _GUID_PROCESSOR_PERF_BOOST_POLICY 004787dc     dxguid:dxguid.obj
 0002:000047ec       _GUID_PROCESSOR_IDLE_ALLOW_SCALING 004787ec     dxguid:dxguid.obj
 0002:000047fc       _GUID_PROCESSOR_IDLE_DISABLE 004787fc     dxguid:dxguid.obj
 0002:0000480c       _GUID_PROCESSOR_IDLE_TIME_CHECK 0047880c     dxguid:dxguid.obj
 0002:0000481c       _GUID_PROCESSOR_IDLE_DEMOTE_THRESHOLD 0047881c     dxguid:dxguid.obj
 0002:0000482c       _GUID_PROCESSOR_IDLE_PROMOTE_THRESHOLD 0047882c     dxguid:dxguid.obj
 0002:0000483c       _GUID_PROCESSOR_CORE_PARKING_INCREASE_THRESHOLD 0047883c     dxguid:dxguid.obj
 0002:0000484c       _GUID_PROCESSOR_CORE_PARKING_DECREASE_THRESHOLD 0047884c     dxguid:dxguid.obj
 0002:0000485c       _GUID_PROCESSOR_CORE_PARKING_INCREASE_POLICY 0047885c     dxguid:dxguid.obj
 0002:0000486c       _GUID_PROCESSOR_CORE_PARKING_DECREASE_POLICY 0047886c     dxguid:dxguid.obj
 0002:0000487c       _GUID_PROCESSOR_CORE_PARKING_MAX_CORES 0047887c     dxguid:dxguid.obj
 0002:0000488c       _GUID_PROCESSOR_CORE_PARKING_MIN_CORES 0047888c     dxguid:dxguid.obj
 0002:0000489c       _GUID_PROCESSOR_CORE_PARKING_INCREASE_TIME 0047889c     dxguid:dxguid.obj
 0002:000048ac       _GUID_PROCESSOR_CORE_PARKING_DECREASE_TIME 004788ac     dxguid:dxguid.obj
 0002:000048bc       _GUID_PROCESSOR_CORE_PARKING_AFFINITY_HISTORY_DECREASE_FACTOR 004788bc     dxguid:dxguid.obj
 0002:000048cc       _GUID_PROCESSOR_CORE_PARKING_AFFINITY_HISTORY_THRESHOLD 004788cc     dxguid:dxguid.obj
 0002:000048dc       _GUID_PROCESSOR_CORE_PARKING_AFFINITY_WEIGHTING 004788dc     dxguid:dxguid.obj
 0002:000048ec       _GUID_PROCESSOR_CORE_PARKING_OVER_UTILIZATION_HISTORY_DECREASE_FACTOR 004788ec     dxguid:dxguid.obj
 0002:000048fc       _GUID_PROCESSOR_CORE_PARKING_OVER_UTILIZATION_HISTORY_THRESHOLD 004788fc     dxguid:dxguid.obj
 0002:0000490c       _GUID_PROCESSOR_CORE_PARKING_OVER_UTILIZATION_WEIGHTING 0047890c     dxguid:dxguid.obj
 0002:0000491c       _GUID_PROCESSOR_CORE_PARKING_OVER_UTILIZATION_THRESHOLD 0047891c     dxguid:dxguid.obj
 0002:0000492c       _GUID_PROCESSOR_PARKING_CORE_OVERRIDE 0047892c     dxguid:dxguid.obj
 0002:0000493c       _GUID_PROCESSOR_PARKING_PERF_STATE 0047893c     dxguid:dxguid.obj
 0002:0000494c       _GUID_PROCESSOR_PERF_HISTORY 0047894c     dxguid:dxguid.obj
 0002:0000495c       _GUID_SYSTEM_COOLING_POLICY 0047895c     dxguid:dxguid.obj
 0002:0000496c       _GUID_LOCK_CONSOLE_ON_WAKE 0047896c     dxguid:dxguid.obj
 0002:0000497c       _GUID_DEVICE_IDLE_POLICY   0047897c     dxguid:dxguid.obj
 0002:0000498c       _GUID_ACDC_POWER_SOURCE    0047898c     dxguid:dxguid.obj
 0002:0000499c       _GUID_LIDSWITCH_STATE_CHANGE 0047899c     dxguid:dxguid.obj
 0002:000049ac       _GUID_BATTERY_PERCENTAGE_REMAINING 004789ac     dxguid:dxguid.obj
 0002:000049bc       _GUID_IDLE_BACKGROUND_TASK 004789bc     dxguid:dxguid.obj
 0002:000049cc       _GUID_BACKGROUND_TASK_NOTIFICATION 004789cc     dxguid:dxguid.obj
 0002:000049dc       _GUID_APPLAUNCH_BUTTON     004789dc     dxguid:dxguid.obj
 0002:000049ec       _GUID_PCIEXPRESS_SETTINGS_SUBGROUP 004789ec     dxguid:dxguid.obj
 0002:000049fc       _GUID_PCIEXPRESS_ASPM_POLICY 004789fc     dxguid:dxguid.obj
 0002:00004a0c       _GUID_ENABLE_SWITCH_FORCED_SHUTDOWN 00478a0c     dxguid:dxguid.obj
 0002:00004a1c       _PPM_PERFSTATE_CHANGE_GUID 00478a1c     dxguid:dxguid.obj
 0002:00004a2c       _PPM_PERFSTATE_DOMAIN_CHANGE_GUID 00478a2c     dxguid:dxguid.obj
 0002:00004a3c       _PPM_IDLESTATE_CHANGE_GUID 00478a3c     dxguid:dxguid.obj
 0002:00004a4c       _PPM_PERFSTATES_DATA_GUID  00478a4c     dxguid:dxguid.obj
 0002:00004a5c       _PPM_IDLESTATES_DATA_GUID  00478a5c     dxguid:dxguid.obj
 0002:00004a6c       _PPM_IDLE_ACCOUNTING_GUID  00478a6c     dxguid:dxguid.obj
 0002:00004a7c       _PPM_IDLE_ACCOUNTING_EX_GUID 00478a7c     dxguid:dxguid.obj
 0002:00004a8c       _PPM_THERMALCONSTRAINT_GUID 00478a8c     dxguid:dxguid.obj
 0002:00004a9c       _PPM_PERFMON_PERFSTATE_GUID 00478a9c     dxguid:dxguid.obj
 0002:00004aac       _PPM_THERMAL_POLICY_CHANGE_GUID 00478aac     dxguid:dxguid.obj
 0002:00004abc       _NETWORK_MANAGER_FIRST_IP_ADDRESS_ARRIVAL_GUID 00478abc     dxguid:dxguid.obj
 0002:00004acc       _NETWORK_MANAGER_LAST_IP_ADDRESS_REMOVAL_GUID 00478acc     dxguid:dxguid.obj
 0002:00004adc       _DOMAIN_JOIN_GUID          00478adc     dxguid:dxguid.obj
 0002:00004aec       _DOMAIN_LEAVE_GUID         00478aec     dxguid:dxguid.obj
 0002:00004afc       _FIREWALL_PORT_OPEN_GUID   00478afc     dxguid:dxguid.obj
 0002:00004b0c       _FIREWALL_PORT_CLOSE_GUID  00478b0c     dxguid:dxguid.obj
 0002:00004b1c       _MACHINE_POLICY_PRESENT_GUID 00478b1c     dxguid:dxguid.obj
 0002:00004b2c       _USER_POLICY_PRESENT_GUID  00478b2c     dxguid:dxguid.obj
 0002:00004b3c       _CLSID_DirectDraw          00478b3c     dxguid:dxguid.obj
 0002:00004b4c       _CLSID_DirectDraw7         00478b4c     dxguid:dxguid.obj
 0002:00004b5c       _CLSID_DirectDrawClipper   00478b5c     dxguid:dxguid.obj
 0002:00004b6c       _IID_IDirectDraw           00478b6c     dxguid:dxguid.obj
 0002:00004b7c       _IID_IDirectDraw2          00478b7c     dxguid:dxguid.obj
 0002:00004b8c       _IID_IDirectDraw4          00478b8c     dxguid:dxguid.obj
 0002:00004b9c       _IID_IDirectDraw7          00478b9c     dxguid:dxguid.obj
 0002:00004bac       _IID_IDirectDrawSurface    00478bac     dxguid:dxguid.obj
 0002:00004bbc       _IID_IDirectDrawSurface2   00478bbc     dxguid:dxguid.obj
 0002:00004bcc       _IID_IDirectDrawSurface3   00478bcc     dxguid:dxguid.obj
 0002:00004bdc       _IID_IDirectDrawSurface4   00478bdc     dxguid:dxguid.obj
 0002:00004bec       _IID_IDirectDrawSurface7   00478bec     dxguid:dxguid.obj
 0002:00004bfc       _IID_IDirectDrawSurfaceNew 00478bfc     dxguid:dxguid.obj
 0002:00004c0c       _CLSID_DirectDrawFactory2  00478c0c     dxguid:dxguid.obj
 0002:00004c1c       _IID_IDirectDrawFactory2   00478c1c     dxguid:dxguid.obj
 0002:00004c2c       _GUID_DirectDrawSurfaceStream 00478c2c     dxguid:dxguid.obj
 0002:00004c3c       _GUID_DirectDrawPaletteStream 00478c3c     dxguid:dxguid.obj
 0002:00004c4c       _IID_IDirectDrawOptSurface 00478c4c     dxguid:dxguid.obj
 0002:00004c5c       _IID_IDirectDrawPalette2   00478c5c     dxguid:dxguid.obj
 0002:00004c6c       _IID_IDirectDrawPalette    00478c6c     dxguid:dxguid.obj
 0002:00004c7c       _IID_IDirectDrawClipper    00478c7c     dxguid:dxguid.obj
 0002:00004c8c       _IID_IDirectDrawColorControl 00478c8c     dxguid:dxguid.obj
 0002:00004c9c       _IID_IDirectDrawGammaControl 00478c9c     dxguid:dxguid.obj
 0002:00004cac       _GUID_MiscellaneousCallbacks 00478cac     dxguid:dxguid.obj
 0002:00004cbc       _GUID_VideoPortCallbacks   00478cbc     dxguid:dxguid.obj
 0002:00004ccc       _GUID_ColorControlCallbacks 00478ccc     dxguid:dxguid.obj
 0002:00004cdc       _GUID_VideoPortCaps        00478cdc     dxguid:dxguid.obj
 0002:00004cec       _GUID_D3DCallbacks2        00478cec     dxguid:dxguid.obj
 0002:00004cfc       _GUID_D3DCallbacks3        00478cfc     dxguid:dxguid.obj
 0002:00004d0c       _GUID_NonLocalVidMemCaps   00478d0c     dxguid:dxguid.obj
 0002:00004d1c       _GUID_KernelCallbacks      00478d1c     dxguid:dxguid.obj
 0002:00004d2c       _GUID_KernelCaps           00478d2c     dxguid:dxguid.obj
 0002:00004d3c       _GUID_D3DExtendedCaps      00478d3c     dxguid:dxguid.obj
 0002:00004d4c       _GUID_ZPixelFormats        00478d4c     dxguid:dxguid.obj
 0002:00004d5c       _GUID_DDMoreSurfaceCaps    00478d5c     dxguid:dxguid.obj
 0002:00004d6c       _GUID_DDStereoMode         00478d6c     dxguid:dxguid.obj
 0002:00004d7c       _GUID_OptSurfaceKmodeInfo  00478d7c     dxguid:dxguid.obj
 0002:00004d8c       _GUID_OptSurfaceUmodeInfo  00478d8c     dxguid:dxguid.obj
 0002:00004d9c       _GUID_UserModeDriverInfo   00478d9c     dxguid:dxguid.obj
 0002:00004dac       _GUID_UserModeDriverPassword 00478dac     dxguid:dxguid.obj
 0002:00004dbc       _GUID_D3DParseUnknownCommandCallback 00478dbc     dxguid:dxguid.obj
 0002:00004dcc       _GUID_MotionCompCallbacks  00478dcc     dxguid:dxguid.obj
 0002:00004ddc       _GUID_NTCallbacks          00478ddc     dxguid:dxguid.obj
 0002:00004dec       _GUID_Miscellaneous2Callbacks 00478dec     dxguid:dxguid.obj
 0002:00004dfc       _GUID_DDMoreCaps           00478dfc     dxguid:dxguid.obj
 0002:00004e0c       _IID_IDDVideoPortContainer 00478e0c     dxguid:dxguid.obj
 0002:00004e1c       _IID_IDirectDrawVideoPort  00478e1c     dxguid:dxguid.obj
 0002:00004e2c       _IID_IDirectDrawVideoPortNotify 00478e2c     dxguid:dxguid.obj
 0002:00004e3c       _DDVPTYPE_E_HREFH_VREFH    00478e3c     dxguid:dxguid.obj
 0002:00004e4c       _DDVPTYPE_E_HREFH_VREFL    00478e4c     dxguid:dxguid.obj
 0002:00004e5c       _DDVPTYPE_E_HREFL_VREFH    00478e5c     dxguid:dxguid.obj
 0002:00004e6c       _DDVPTYPE_E_HREFL_VREFL    00478e6c     dxguid:dxguid.obj
 0002:00004e7c       _DDVPTYPE_CCIR656          00478e7c     dxguid:dxguid.obj
 0002:00004e8c       _DDVPTYPE_BROOKTREE        00478e8c     dxguid:dxguid.obj
 0002:00004e9c       _DDVPTYPE_PHILIPS          00478e9c     dxguid:dxguid.obj
 0002:00004eac       _TID_D3DRMInfo             00478eac     dxguid:dxguid.obj
 0002:00004ebc       _TID_D3DRMMesh             00478ebc     dxguid:dxguid.obj
 0002:00004ecc       _TID_D3DRMVector           00478ecc     dxguid:dxguid.obj
 0002:00004edc       _TID_D3DRMMeshFace         00478edc     dxguid:dxguid.obj
 0002:00004eec       _TID_D3DRMMaterial         00478eec     dxguid:dxguid.obj
 0002:00004efc       _TID_D3DRMMaterialArray    00478efc     dxguid:dxguid.obj
 0002:00004f0c       _TID_D3DRMFrame            00478f0c     dxguid:dxguid.obj
 0002:00004f1c       _TID_D3DRMFrameTransformMatrix 00478f1c     dxguid:dxguid.obj
 0002:00004f2c       _TID_D3DRMMeshMaterialList 00478f2c     dxguid:dxguid.obj
 0002:00004f3c       _TID_D3DRMMeshTextureCoords 00478f3c     dxguid:dxguid.obj
 0002:00004f4c       _TID_D3DRMMeshNormals      00478f4c     dxguid:dxguid.obj
 0002:00004f5c       _TID_D3DRMCoords2d         00478f5c     dxguid:dxguid.obj
 0002:00004f6c       _TID_D3DRMMatrix4x4        00478f6c     dxguid:dxguid.obj
 0002:00004f7c       _TID_D3DRMAnimation        00478f7c     dxguid:dxguid.obj
 0002:00004f8c       _TID_D3DRMAnimationSet     00478f8c     dxguid:dxguid.obj
 0002:00004f9c       _TID_D3DRMAnimationKey     00478f9c     dxguid:dxguid.obj
 0002:00004fac       _TID_D3DRMFloatKeys        00478fac     dxguid:dxguid.obj
 0002:00004fbc       _TID_D3DRMMaterialAmbientColor 00478fbc     dxguid:dxguid.obj
 0002:00004fcc       _TID_D3DRMMaterialDiffuseColor 00478fcc     dxguid:dxguid.obj
 0002:00004fdc       _TID_D3DRMMaterialSpecularColor 00478fdc     dxguid:dxguid.obj
 0002:00004fec       _TID_D3DRMMaterialEmissiveColor 00478fec     dxguid:dxguid.obj
 0002:00004ffc       _TID_D3DRMMaterialPower    00478ffc     dxguid:dxguid.obj
 0002:0000500c       _TID_D3DRMColorRGBA        0047900c     dxguid:dxguid.obj
 0002:0000501c       _TID_D3DRMColorRGB         0047901c     dxguid:dxguid.obj
 0002:0000502c       _TID_D3DRMGuid             0047902c     dxguid:dxguid.obj
 0002:0000503c       _TID_D3DRMTextureFilename  0047903c     dxguid:dxguid.obj
 0002:0000504c       _TID_D3DRMTextureReference 0047904c     dxguid:dxguid.obj
 0002:0000505c       _TID_D3DRMIndexedColor     0047905c     dxguid:dxguid.obj
 0002:0000506c       _TID_D3DRMMeshVertexColors 0047906c     dxguid:dxguid.obj
 0002:0000507c       _TID_D3DRMMaterialWrap     0047907c     dxguid:dxguid.obj
 0002:0000508c       _TID_D3DRMBoolean          0047908c     dxguid:dxguid.obj
 0002:0000509c       _TID_D3DRMMeshFaceWraps    0047909c     dxguid:dxguid.obj
 0002:000050ac       _TID_D3DRMBoolean2d        004790ac     dxguid:dxguid.obj
 0002:000050bc       _TID_D3DRMTimedFloatKeys   004790bc     dxguid:dxguid.obj
 0002:000050cc       _TID_D3DRMAnimationOptions 004790cc     dxguid:dxguid.obj
 0002:000050dc       _TID_D3DRMFramePosition    004790dc     dxguid:dxguid.obj
 0002:000050ec       _TID_D3DRMFrameVelocity    004790ec     dxguid:dxguid.obj
 0002:000050fc       _TID_D3DRMFrameRotation    004790fc     dxguid:dxguid.obj
 0002:0000510c       _TID_D3DRMLight            0047910c     dxguid:dxguid.obj
 0002:0000511c       _TID_D3DRMCamera           0047911c     dxguid:dxguid.obj
 0002:0000512c       _TID_D3DRMAppData          0047912c     dxguid:dxguid.obj
 0002:0000513c       _TID_D3DRMLightUmbra       0047913c     dxguid:dxguid.obj
 0002:0000514c       _TID_D3DRMLightRange       0047914c     dxguid:dxguid.obj
 0002:0000515c       _TID_D3DRMLightPenumbra    0047915c     dxguid:dxguid.obj
 0002:0000516c       _TID_D3DRMLightAttenuation 0047916c     dxguid:dxguid.obj
 0002:0000517c       _TID_D3DRMInlineData       0047917c     dxguid:dxguid.obj
 0002:0000518c       _TID_D3DRMUrl              0047918c     dxguid:dxguid.obj
 0002:0000519c       _TID_D3DRMProgressiveMesh  0047919c     dxguid:dxguid.obj
 0002:000051ac       _TID_D3DRMExternalVisual   004791ac     dxguid:dxguid.obj
 0002:000051bc       _TID_D3DRMStringProperty   004791bc     dxguid:dxguid.obj
 0002:000051cc       _TID_D3DRMPropertyBag      004791cc     dxguid:dxguid.obj
 0002:000051dc       _TID_D3DRMRightHanded      004791dc     dxguid:dxguid.obj
 0002:000051ec       _CLSID_CDirectXFile        004791ec     dxguid:dxguid.obj
 0002:000051fc       _IID_IDirectXFile          004791fc     dxguid:dxguid.obj
 0002:0000520c       _IID_IDirectXFileEnumObject 0047920c     dxguid:dxguid.obj
 0002:0000521c       _IID_IDirectXFileSaveObject 0047921c     dxguid:dxguid.obj
 0002:0000522c       _IID_IDirectXFileObject    0047922c     dxguid:dxguid.obj
 0002:0000523c       _IID_IDirectXFileData      0047923c     dxguid:dxguid.obj
 0002:0000524c       _IID_IDirectXFileDataReference 0047924c     dxguid:dxguid.obj
 0002:0000525c       _IID_IDirectXFileBinary    0047925c     dxguid:dxguid.obj
 0002:0000526c       _TID_DXFILEHeader          0047926c     dxguid:dxguid.obj
 0002:0000527c       _CLSID_DirectInput         0047927c     dxguid:dxguid.obj
 0002:0000528c       _CLSID_DirectInputDevice   0047928c     dxguid:dxguid.obj
 0002:0000529c       _CLSID_DirectInput8        0047929c     dxguid:dxguid.obj
 0002:000052ac       _CLSID_DirectInputDevice8  004792ac     dxguid:dxguid.obj
 0002:000052bc       _IID_IDirectInputA         004792bc     dxguid:dxguid.obj
 0002:000052cc       _IID_IDirectInputW         004792cc     dxguid:dxguid.obj
 0002:000052dc       _IID_IDirectInput2A        004792dc     dxguid:dxguid.obj
 0002:000052ec       _IID_IDirectInput2W        004792ec     dxguid:dxguid.obj
 0002:000052fc       _IID_IDirectInput7A        004792fc     dxguid:dxguid.obj
 0002:0000530c       _IID_IDirectInput7W        0047930c     dxguid:dxguid.obj
 0002:0000531c       _IID_IDirectInput8A        0047931c     dxguid:dxguid.obj
 0002:0000532c       _IID_IDirectInput8W        0047932c     dxguid:dxguid.obj
 0002:0000533c       _IID_IDirectInputDeviceA   0047933c     dxguid:dxguid.obj
 0002:0000534c       _IID_IDirectInputDeviceW   0047934c     dxguid:dxguid.obj
 0002:0000535c       _IID_IDirectInputDevice2A  0047935c     dxguid:dxguid.obj
 0002:0000536c       _IID_IDirectInputDevice2W  0047936c     dxguid:dxguid.obj
 0002:0000537c       _IID_IDirectInputDevice7A  0047937c     dxguid:dxguid.obj
 0002:0000538c       _IID_IDirectInputDevice7W  0047938c     dxguid:dxguid.obj
 0002:0000539c       _IID_IDirectInputDevice8A  0047939c     dxguid:dxguid.obj
 0002:000053ac       _IID_IDirectInputDevice8W  004793ac     dxguid:dxguid.obj
 0002:000053bc       _IID_IDirectInputEffect    004793bc     dxguid:dxguid.obj
 0002:000053cc       _GUID_XAxis                004793cc     dxguid:dxguid.obj
 0002:000053dc       _GUID_YAxis                004793dc     dxguid:dxguid.obj
 0002:000053ec       _GUID_ZAxis                004793ec     dxguid:dxguid.obj
 0002:000053fc       _GUID_RxAxis               004793fc     dxguid:dxguid.obj
 0002:0000540c       _GUID_RyAxis               0047940c     dxguid:dxguid.obj
 0002:0000541c       _GUID_RzAxis               0047941c     dxguid:dxguid.obj
 0002:0000542c       _GUID_Slider               0047942c     dxguid:dxguid.obj
 0002:0000543c       _GUID_Button               0047943c     dxguid:dxguid.obj
 0002:0000544c       _GUID_Key                  0047944c     dxguid:dxguid.obj
 0002:0000545c       _GUID_POV                  0047945c     dxguid:dxguid.obj
 0002:0000546c       _GUID_Unknown              0047946c     dxguid:dxguid.obj
 0002:0000547c       _GUID_SysMouse             0047947c     dxguid:dxguid.obj
 0002:0000548c       _GUID_SysKeyboard          0047948c     dxguid:dxguid.obj
 0002:0000549c       _GUID_Joystick             0047949c     dxguid:dxguid.obj
 0002:000054ac       _GUID_SysMouseEm           004794ac     dxguid:dxguid.obj
 0002:000054bc       _GUID_SysMouseEm2          004794bc     dxguid:dxguid.obj
 0002:000054cc       _GUID_SysKeyboardEm        004794cc     dxguid:dxguid.obj
 0002:000054dc       _GUID_SysKeyboardEm2       004794dc     dxguid:dxguid.obj
 0002:000054ec       _GUID_ConstantForce        004794ec     dxguid:dxguid.obj
 0002:000054fc       _GUID_RampForce            004794fc     dxguid:dxguid.obj
 0002:0000550c       _GUID_Square               0047950c     dxguid:dxguid.obj
 0002:0000551c       _GUID_Sine                 0047951c     dxguid:dxguid.obj
 0002:0000552c       _GUID_Triangle             0047952c     dxguid:dxguid.obj
 0002:0000553c       _GUID_SawtoothUp           0047953c     dxguid:dxguid.obj
 0002:0000554c       _GUID_SawtoothDown         0047954c     dxguid:dxguid.obj
 0002:0000555c       _GUID_Spring               0047955c     dxguid:dxguid.obj
 0002:0000556c       _GUID_Damper               0047956c     dxguid:dxguid.obj
 0002:0000557c       _GUID_Inertia              0047957c     dxguid:dxguid.obj
 0002:0000558c       _GUID_Friction             0047958c     dxguid:dxguid.obj
 0002:0000559c       _GUID_CustomForce          0047959c     dxguid:dxguid.obj
 0002:000055ac       _IID_IDirectInputEffectDriver 004795ac     dxguid:dxguid.obj
 0002:000055bc       _IID_IDirectInputJoyConfig 004795bc     dxguid:dxguid.obj
 0002:000055cc       _IID_IDirectInputPIDDriver 004795cc     dxguid:dxguid.obj
 0002:000055dc       _IID_IDirectInputJoyConfig8 004795dc     dxguid:dxguid.obj
 0002:000055ec       _GUID_KeyboardClass        004795ec     dxguid:dxguid.obj
 0002:000055fc       _GUID_MediaClass           004795fc     dxguid:dxguid.obj
 0002:0000560c       _GUID_MouseClass           0047960c     dxguid:dxguid.obj
 0002:0000561c       _GUID_HIDClass             0047961c     dxguid:dxguid.obj
 0002:0000562c       _CLSID_DirectSound         0047962c     dxguid:dxguid.obj
 0002:0000563c       _CLSID_DirectSound8        0047963c     dxguid:dxguid.obj
 0002:0000564c       _CLSID_DirectSoundCapture  0047964c     dxguid:dxguid.obj
 0002:0000565c       _CLSID_DirectSoundCapture8 0047965c     dxguid:dxguid.obj
 0002:0000566c       _CLSID_DirectSoundFullDuplex 0047966c     dxguid:dxguid.obj
 0002:0000567c       _DSDEVID_DefaultPlayback   0047967c     dxguid:dxguid.obj
 0002:0000568c       _DSDEVID_DefaultCapture    0047968c     dxguid:dxguid.obj
 0002:0000569c       _DSDEVID_DefaultVoicePlayback 0047969c     dxguid:dxguid.obj
 0002:000056ac       _DSDEVID_DefaultVoiceCapture 004796ac     dxguid:dxguid.obj
 0002:000056bc       _IID_IReferenceClock       004796bc     dxguid:dxguid.obj
 0002:000056cc       _IID_IDirectSound          004796cc     dxguid:dxguid.obj
 0002:000056dc       _IID_IDirectSound8         004796dc     dxguid:dxguid.obj
 0002:000056ec       _IID_IDirectSoundBuffer    004796ec     dxguid:dxguid.obj
 0002:000056fc       _IID_IDirectSoundBuffer8   004796fc     dxguid:dxguid.obj
 0002:0000570c       _GUID_All_Objects          0047970c     dxguid:dxguid.obj
 0002:0000571c       _IID_IDirectSound3DListener 0047971c     dxguid:dxguid.obj
 0002:0000572c       _IID_IDirectSound3DBuffer  0047972c     dxguid:dxguid.obj
 0002:0000573c       _IID_IDirectSoundCapture   0047973c     dxguid:dxguid.obj
 0002:0000574c       _IID_IDirectSoundCaptureBuffer 0047974c     dxguid:dxguid.obj
 0002:0000575c       _IID_IDirectSoundCaptureBuffer8 0047975c     dxguid:dxguid.obj
 0002:0000576c       _IID_IDirectSoundNotify    0047976c     dxguid:dxguid.obj
 0002:0000577c       _IID_IKsPropertySet        0047977c     dxguid:dxguid.obj
 0002:0000578c       _IID_IDirectSoundFXGargle  0047978c     dxguid:dxguid.obj
 0002:0000579c       _IID_IDirectSoundFXChorus  0047979c     dxguid:dxguid.obj
 0002:000057ac       _IID_IDirectSoundFXFlanger 004797ac     dxguid:dxguid.obj
 0002:000057bc       _IID_IDirectSoundFXEcho    004797bc     dxguid:dxguid.obj
 0002:000057cc       _IID_IDirectSoundFXDistortion 004797cc     dxguid:dxguid.obj
 0002:000057dc       _IID_IDirectSoundFXCompressor 004797dc     dxguid:dxguid.obj
 0002:000057ec       _IID_IDirectSoundFXParamEq 004797ec     dxguid:dxguid.obj
 0002:000057fc       _IID_IDirectSoundFXI3DL2Reverb 004797fc     dxguid:dxguid.obj
 0002:0000580c       _IID_IDirectSoundFXWavesReverb 0047980c     dxguid:dxguid.obj
 0002:0000581c       _IID_IDirectSoundCaptureFXAec 0047981c     dxguid:dxguid.obj
 0002:0000582c       _IID_IDirectSoundCaptureFXNoiseSuppress 0047982c     dxguid:dxguid.obj
 0002:0000583c       _IID_IDirectSoundFullDuplex 0047983c     dxguid:dxguid.obj
 0002:0000584c       _DS3DALG_NO_VIRTUALIZATION 0047984c     dxguid:dxguid.obj
 0002:0000585c       _DS3DALG_HRTF_FULL         0047985c     dxguid:dxguid.obj
 0002:0000586c       _DS3DALG_HRTF_LIGHT        0047986c     dxguid:dxguid.obj
 0002:0000587c       _GUID_DSFX_STANDARD_GARGLE 0047987c     dxguid:dxguid.obj
 0002:0000588c       _GUID_DSFX_STANDARD_CHORUS 0047988c     dxguid:dxguid.obj
 0002:0000589c       _GUID_DSFX_STANDARD_FLANGER 0047989c     dxguid:dxguid.obj
 0002:000058ac       _GUID_DSFX_STANDARD_ECHO   004798ac     dxguid:dxguid.obj
 0002:000058bc       _GUID_DSFX_STANDARD_DISTORTION 004798bc     dxguid:dxguid.obj
 0002:000058cc       _GUID_DSFX_STANDARD_COMPRESSOR 004798cc     dxguid:dxguid.obj
 0002:000058dc       _GUID_DSFX_STANDARD_PARAMEQ 004798dc     dxguid:dxguid.obj
 0002:000058ec       _GUID_DSFX_STANDARD_I3DL2REVERB 004798ec     dxguid:dxguid.obj
 0002:000058fc       _GUID_DSFX_WAVES_REVERB    004798fc     dxguid:dxguid.obj
 0002:0000590c       _GUID_DSCFX_CLASS_AEC      0047990c     dxguid:dxguid.obj
 0002:0000591c       _GUID_DSCFX_MS_AEC         0047991c     dxguid:dxguid.obj
 0002:0000592c       _GUID_DSCFX_SYSTEM_AEC     0047992c     dxguid:dxguid.obj
 0002:0000593c       _GUID_DSCFX_CLASS_NS       0047993c     dxguid:dxguid.obj
 0002:0000594c       _GUID_DSCFX_MS_NS          0047994c     dxguid:dxguid.obj
 0002:0000595c       _GUID_DSCFX_SYSTEM_NS      0047995c     dxguid:dxguid.obj
 0002:0000596c       _CLSID_DxDiagProvider      0047996c     dxguid:dxguid.obj
 0002:0000597c       _IID_IDxDiagProvider       0047997c     dxguid:dxguid.obj
 0002:0000598c       _IID_IDxDiagContainer      0047998c     dxguid:dxguid.obj
 0002:0000599c       __FPinit                   0047999c     LIBCMTD:_fpinit_.obj
 0002:000059a0       __FPmtinit                 004799a0     LIBCMTD:_fpinit_.obj
 0002:000059a4       __FPmtterm                 004799a4     LIBCMTD:_fpinit_.obj
 0002:000059a8       ?ProcessDetach@NativeDll@<CrtImplementationDetails>@@0IB 004799a8     LIBCMTD:_trnsctrl_.obj
 0002:000059ac       ?ProcessAttach@NativeDll@<CrtImplementationDetails>@@0IB 004799ac     LIBCMTD:_trnsctrl_.obj
 0002:000059b0       ?ThreadAttach@NativeDll@<CrtImplementationDetails>@@0IB 004799b0     LIBCMTD:_trnsctrl_.obj
 0002:000059b4       ?ThreadDetach@NativeDll@<CrtImplementationDetails>@@0IB 004799b4     LIBCMTD:_trnsctrl_.obj
 0002:000059b8       ?ProcessVerifier@NativeDll@<CrtImplementationDetails>@@0IB 004799b8     LIBCMTD:_trnsctrl_.obj
 0002:000059c0       ??_C@_1GE@BDAODJCD@?$AAf?$AA?3?$AA?2?$AAd?$AAd?$AA?2?$AAv?$AAc?$AAt?$AAo?$AAo?$AAl?$AAs?$AA?2?$AAc?$AAr?$AAt?$AA_?$AAb?$AAl?$AAd?$AA?2?$AAs?$AAe?$AAl?$AAf?$AA_?$AAx?$AA8?$AA6?$AA?2?$AAc@ 004799c0     LIBCMTD:dbgdel.obj
 0002:00005a28       ??_C@_1EO@LHDAJOCM@?$AA_?$AAB?$AAL?$AAO?$AAC?$AAK?$AA_?$AAT?$AAY?$AAP?$AAE?$AA_?$AAI?$AAS?$AA_?$AAV?$AAA?$AAL?$AAI?$AAD?$AA?$CI?$AAp?$AAH?$AAe?$AAa?$AAd?$AA?9?$AA?$DO?$AAn?$AAB?$AAl?$AAo@ 00479a28     LIBCMTD:dbgdel.obj
 0002:00005a78       ??_C@_0P@GHFPNOJB@bad?5allocation?$AA@ 00479a78     LIBCMTD:new.obj
 0002:00005a88       ??_C@_1CC@OLIJCKA@?$AA?$CI?$AAs?$AAt?$AAr?$AAi?$AAn?$AAg?$AA?5?$AA?$CB?$AA?$DN?$AA?5?$AAN?$AAU?$AAL?$AAL?$AA?$CJ?$AA?$AA@ 00479a88     LIBCMTD:sprintf.obj
 0002:00005aac       ??_C@_1BA@KBJJGFFE@?$AAs?$AAp?$AAr?$AAi?$AAn?$AAt?$AAf?$AA?$AA@ 00479aac     LIBCMTD:sprintf.obj
 0002:00005ac0       ??_C@_1GC@BMNPEKNN@?$AAf?$AA?3?$AA?2?$AAd?$AAd?$AA?2?$AAv?$AAc?$AAt?$AAo?$AAo?$AAl?$AAs?$AA?2?$AAc?$AAr?$AAt?$AA_?$AAb?$AAl?$AAd?$AA?2?$AAs?$AAe?$AAl?$AAf?$AA_?$AAx?$AA8?$AA6?$AA?2?$AAc@ 00479ac0     LIBCMTD:sprintf.obj
 0002:00005b24       ??_C@_1CC@MGIEJOME@?$AA?$CI?$AAf?$AAo?$AAr?$AAm?$AAa?$AAt?$AA?5?$AA?$CB?$AA?$DN?$AA?5?$AAN?$AAU?$AAL?$AAL?$AA?$CJ?$AA?$AA@ 00479b24     LIBCMTD:sprintf.obj
 0002:00005b6c       ??_7type_info@@6B@         00479b6c     LIBCMTD:typinfo.obj
 0002:00005b74       ??_7exception@std@@6B@     00479b74     LIBCMTD:stdexcpt.obj
 0002:00005b7c       ??_C@_0BC@EOODALEL@Unknown?5exception?$AA@ 00479b7c     LIBCMTD:stdexcpt.obj
 0002:00005b94       ??_7bad_cast@std@@6B@      00479b94     LIBCMTD:stdexcpt.obj
 0002:00005ba0       ??_7bad_typeid@std@@6B@    00479ba0     LIBCMTD:stdexcpt.obj
 0002:00005bac       ??_7__non_rtti_object@std@@6B@ 00479bac     LIBCMTD:stdexcpt.obj
 0002:00005bb4       ??_C@_1CK@DDKKOLAN@?$AAs?$AAi?$AAz?$AAe?$AAI?$AAn?$AAB?$AAy?$AAt?$AAe?$AAs?$AA?5?$AA?$DO?$AA?$DN?$AA?5?$AAc?$AAo?$AAu?$AAn?$AAt?$AA?$AA@ 00479bb4     LIBCMTD:memcpy_s.obj
 0002:00005be0       ??_C@_1BI@DCHLDCPP@?$AAs?$AAr?$AAc?$AA?5?$AA?$CB?$AA?$DN?$AA?5?$AAN?$AAU?$AAL?$AAL?$AA?$AA@ 00479be0     LIBCMTD:memcpy_s.obj
 0002:00005bf8       ??_C@_1BC@GKHDJMGB@?$AAm?$AAe?$AAm?$AAc?$AAp?$AAy?$AA_?$AAs?$AA?$AA@ 00479bf8     LIBCMTD:memcpy_s.obj
 0002:00005c10       ??_C@_1GE@NEOPGGBM@?$AAf?$AA?3?$AA?2?$AAd?$AAd?$AA?2?$AAv?$AAc?$AAt?$AAo?$AAo?$AAl?$AAs?$AA?2?$AAc?$AAr?$AAt?$AA_?$AAb?$AAl?$AAd?$AA?2?$AAs?$AAe?$AAl?$AAf?$AA_?$AAx?$AA8?$AA6?$AA?2?$AAc@ 00479c10     LIBCMTD:memcpy_s.obj
 0002:00005c74       ??_C@_1BI@GKKCBDMD@?$AAd?$AAs?$AAt?$AA?5?$AA?$CB?$AA?$DN?$AA?5?$AAN?$AAU?$AAL?$AAL?$AA?$AA@ 00479c74     LIBCMTD:memcpy_s.obj
 0002:00005c8c       ??_C@_1BE@NMKKBGPA@?$AAm?$AAe?$AAm?$AAm?$AAo?$AAv?$AAe?$AA_?$AAs?$AA?$AA@ 00479c8c     LIBCMTD:memmove_s.obj
 0002:00005ca0       ??_C@_1GG@JKNLCIHH@?$AAf?$AA?3?$AA?2?$AAd?$AAd?$AA?2?$AAv?$AAc?$AAt?$AAo?$AAo?$AAl?$AAs?$AA?2?$AAc?$AAr?$AAt?$AA_?$AAb?$AAl?$AAd?$AA?2?$AAs?$AAe?$AAl?$AAf?$AA_?$AAx?$AA8?$AA6?$AA?2?$AAc@ 00479ca0     LIBCMTD:memmove_s.obj
 0002:00005d60       ??_C@_17LGKOMLJ@?$AA?4?$AA?4?$AA?4?$AA?$AA@ 00479d60     LIBCMTD:dbgrptw.obj
 0002:00005d68       ??_C@_1CC@CGHMNGDG@?$AAA?$AAs?$AAs?$AAe?$AAr?$AAt?$AAi?$AAo?$AAn?$AA?5?$AAF?$AAa?$AAi?$AAl?$AAe?$AAd?$AA?$AA@ 00479d68     LIBCMTD:dbgrptw.obj
 0002:00005d8c       ??_C@_1M@ILHOPKA@?$AAE?$AAr?$AAr?$AAo?$AAr?$AA?$AA@ 00479d8c     LIBCMTD:dbgrptw.obj
 0002:00005d98       ??_C@_1BA@GLMCNLEM@?$AAW?$AAa?$AAr?$AAn?$AAi?$AAn?$AAg?$AA?$AA@ 00479d98     LIBCMTD:dbgrptw.obj
 0002:00005db4       ??_C@_0DA@PCCBBBID@f?3?2dd?2vctools?2crt_bld?2self_x86?2c@ 00479db4     LIBCMTD:dbgrptw.obj
 0002:00005de8       ??_C@_1FI@PHIAFFHM@?$AA?$CI?$AA?$CC?$AAT?$AAh?$AAe?$AA?5?$AAh?$AAo?$AAo?$AAk?$AA?5?$AAf?$AAu?$AAn?$AAc?$AAt?$AAi?$AAo?$AAn?$AA?5?$AAi?$AAs?$AA?5?$AAn?$AAo?$AAt?$AA?5?$AAi?$AAn?$AA?5?$AAt?$AAh@ 00479de8     LIBCMTD:dbgrptw.obj
 0002:00005e40       ??_C@_1CG@JBJEFOCM@?$AAp?$AAf?$AAn?$AAN?$AAe?$AAw?$AAH?$AAo?$AAo?$AAk?$AA?5?$AA?$CB?$AA?$DN?$AA?5?$AAN?$AAU?$AAL?$AAL?$AA?$AA@ 00479e40     LIBCMTD:dbgrptw.obj
 0002:00005e68       ??_C@_1CI@IIHEAKEI@?$AA_?$AAC?$AAr?$AAt?$AAS?$AAe?$AAt?$AAR?$AAe?$AAp?$AAo?$AAr?$AAt?$AAH?$AAo?$AAo?$AAk?$AAW?$AA2?$AA?$AA@ 00479e68     LIBCMTD:dbgrptw.obj
 0002:00005e90       ??_C@_1GA@IBJGKIFE@?$AAf?$AA?3?$AA?2?$AAd?$AAd?$AA?2?$AAv?$AAc?$AAt?$AAo?$AAo?$AAl?$AAs?$AA?2?$AAc?$AAr?$AAt?$AA_?$AAb?$AAl?$AAd?$AA?2?$AAs?$AAe?$AAl?$AAf?$AA_?$AAx?$AA8?$AA6?$AA?2?$AAc@ 00479e90     LIBCMTD:dbgrptw.obj
 0002:00005ef0       ??_C@_1HI@OFEHGPPC@?$AAm?$AAo?$AAd?$AAe?$AA?5?$AA?$DN?$AA?$DN?$AA?5?$AA_?$AAC?$AAR?$AAT?$AA_?$AAR?$AAP?$AAT?$AAH?$AAO?$AAO?$AAK?$AA_?$AAI?$AAN?$AAS?$AAT?$AAA?$AAL?$AAL?$AA?5?$AA?$HM?$AA?$HM?$AA?5@ 00479ef0     LIBCMTD:dbgrptw.obj
 0002:00005f68       ??_C@_1EG@PEOEAKBB@?$AAM?$AAi?$AAc?$AAr?$AAo?$AAs?$AAo?$AAf?$AAt?$AA?5?$AAV?$AAi?$AAs?$AAu?$AAa?$AAl?$AA?5?$AAC?$AA?$CL?$AA?$CL?$AA?5?$AAD?$AAe?$AAb?$AAu?$AAg?$AA?5?$AAL?$AAi?$AAb?$AAr?$AAa@ 00479f68     LIBCMTD:dbgrptw.obj
 0002:00005fb0       ??_C@_1FG@BBOLDHGF@?$AA_?$AAC?$AAr?$AAt?$AAD?$AAb?$AAg?$AAR?$AAe?$AAp?$AAo?$AAr?$AAt?$AA?3?$AA?5?$AAS?$AAt?$AAr?$AAi?$AAn?$AAg?$AA?5?$AAt?$AAo?$AAo?$AA?5?$AAl?$AAo?$AAn?$AAg?$AA?5?$AAo@ 00479fb0     LIBCMTD:dbgrptw.obj
 0002:00006008       ??_C@_1JI@EACPGHID@?$AAw?$AAc?$AAs?$AAc?$AAp?$AAy?$AA_?$AAs?$AA?$CI?$AAs?$AAz?$AAO?$AAu?$AAt?$AAM?$AAe?$AAs?$AAs?$AAa?$AAg?$AAe?$AA?0?$AA?5?$AA4?$AA0?$AA9?$AA6?$AA?0?$AA?5?$AAL?$AA?$CC?$AA_@ 0047a008     LIBCMTD:dbgrptw.obj
 0002:000060a0       ??_C@_1BI@KALLJECN@?$AA?$CI?$AA?$CK?$AA_?$AAe?$AAr?$AAr?$AAn?$AAo?$AA?$CI?$AA?$CJ?$AA?$CJ?$AA?$AA@ 0047a0a0     LIBCMTD:dbgrptw.obj
 0002:000060b8       ??_C@_1KK@MEFMPOLM@?$AAD?$AAe?$AAb?$AAu?$AAg?$AA?5?$AA?$CF?$AAs?$AA?$CB?$AA?6?$AA?6?$AAP?$AAr?$AAo?$AAg?$AAr?$AAa?$AAm?$AA?3?$AA?5?$AA?$CF?$AAs?$AA?$CF?$AAs?$AA?$CF?$AAs?$AA?$CF?$AAs?$AA?$CF?$AAs?$AA?$CF?$AAs@ 0047a0b8     LIBCMTD:dbgrptw.obj
 0002:00006164       ??_C@_1BE@CGCJKGHI@?$AA?6?$AAM?$AAo?$AAd?$AAu?$AAl?$AAe?$AA?3?$AA?5?$AA?$AA@ 0047a164     LIBCMTD:dbgrptw.obj
 0002:00006178       ??_C@_1BA@LNHECFIM@?$AA?6?$AAF?$AAi?$AAl?$AAe?$AA?3?$AA?5?$AA?$AA@ 0047a178     LIBCMTD:dbgrptw.obj
 0002:00006188       ??_C@_1BA@GLLGCPCK@?$AA?6?$AAL?$AAi?$AAn?$AAe?$AA?3?$AA?5?$AA?$AA@ 0047a188     LIBCMTD:dbgrptw.obj
 0002:00006198       ??_C@_15IABLJNFO@?$AA?6?$AA?6?$AA?$AA@ 0047a198     LIBCMTD:dbgrptw.obj
 0002:000061a0       ??_C@_1BK@PEDCIPMA@?$AAE?$AAx?$AAp?$AAr?$AAe?$AAs?$AAs?$AAi?$AAo?$AAn?$AA?3?$AA?5?$AA?$AA@ 0047a1a0     LIBCMTD:dbgrptw.obj
 0002:000061bc       ??_C@_11LOCGONAA@?$AA?$AA@ 0047a1bc     LIBCMTD:dbgrptw.obj
 0002:000061c0       ??_C@_1OG@PMPPFHAF@?$AA?6?$AA?6?$AAF?$AAo?$AAr?$AA?5?$AAi?$AAn?$AAf?$AAo?$AAr?$AAm?$AAa?$AAt?$AAi?$AAo?$AAn?$AA?5?$AAo?$AAn?$AA?5?$AAh?$AAo?$AAw?$AA?5?$AAy?$AAo?$AAu?$AAr?$AA?5?$AAp?$AAr@ 0047a1c0     LIBCMTD:dbgrptw.obj
 0002:000062a8       ??_C@_1NO@LECLLHOL@?$AAm?$AAe?$AAm?$AAc?$AAp?$AAy?$AA_?$AAs?$AA?$CI?$AAs?$AAz?$AAS?$AAh?$AAo?$AAr?$AAt?$AAP?$AAr?$AAo?$AAg?$AAN?$AAa?$AAm?$AAe?$AA?0?$AA?5?$AAs?$AAi?$AAz?$AAe?$AAo?$AAf@ 0047a2a8     LIBCMTD:dbgrptw.obj
 0002:00006388       ??_C@_1CO@EAEJAADC@?$AA?$DM?$AAp?$AAr?$AAo?$AAg?$AAr?$AAa?$AAm?$AA?5?$AAn?$AAa?$AAm?$AAe?$AA?5?$AAu?$AAn?$AAk?$AAn?$AAo?$AAw?$AAn?$AA?$DO?$AA?$AA@ 0047a388     LIBCMTD:dbgrptw.obj
 0002:000063b8       ??_C@_1GI@DEDNNLCI@?$AAw?$AAc?$AAs?$AAc?$AAp?$AAy?$AA_?$AAs?$AA?$CI?$AAs?$AAz?$AAE?$AAx?$AAe?$AAN?$AAa?$AAm?$AAe?$AA?0?$AA?5?$AA2?$AA6?$AA0?$AA?0?$AA?5?$AAL?$AA?$CC?$AA?$DM?$AAp?$AAr?$AAo?$AAg@ 0047a3b8     LIBCMTD:dbgrptw.obj
 0002:00006420       ??_C@_1CI@PGJIFDEK@?$AA_?$AA_?$AAc?$AAr?$AAt?$AAM?$AAe?$AAs?$AAs?$AAa?$AAg?$AAe?$AAW?$AAi?$AAn?$AAd?$AAo?$AAw?$AAW?$AA?$AA@ 0047a420     LIBCMTD:dbgrptw.obj
 0002:00006448       ??_C@_1GE@KOCFNGPB@?$AA_?$AAc?$AAo?$AAn?$AAt?$AAr?$AAo?$AAl?$AAf?$AAp?$AA_?$AAs?$AA?$CI?$AA?$CI?$AA?$CI?$AAv?$AAo?$AAi?$AAd?$AA?5?$AA?$CK?$AA?$CJ?$AA0?$AA?$CJ?$AA?0?$AA?5?$AA0?$AAx?$AA0?$AA0?$AA0?$AA1@ 0047a448     LIBCMTD:fp8.obj
 0002:000064ac       ??_C@_1CK@JMKHCBEI@?$AA_?$AAs?$AAe?$AAt?$AAd?$AAe?$AAf?$AAa?$AAu?$AAl?$AAt?$AAp?$AAr?$AAe?$AAc?$AAi?$AAs?$AAi?$AAo?$AAn?$AA?$AA@ 0047a4ac     LIBCMTD:fp8.obj
 0002:000064d8       ??_C@_1GG@PHGJJHBC@?$AAf?$AA?3?$AA?2?$AAd?$AAd?$AA?2?$AAv?$AAc?$AAt?$AAo?$AAo?$AAl?$AAs?$AA?2?$AAc?$AAr?$AAt?$AA_?$AAb?$AAl?$AAd?$AA?2?$AAs?$AAe?$AAl?$AAf?$AA_?$AAx?$AA8?$AA6?$AA?2?$AAc@ 0047a4d8     LIBCMTD:fp8.obj
 0002:00006540       __real@4150017ec0000000    0047a540     LIBCMTD:_testfdiv_.obj
 0002:00006548       __real@4147ffff80000000    0047a548     LIBCMTD:_testfdiv_.obj
 0002:00006550       ??_C@_0BK@NHEOCAHP@IsProcessorFeaturePresent?$AA@ 0047a550     LIBCMTD:_testfdiv_.obj
 0002:0000656c       ??_C@_08CPNIBGIE@KERNEL32?$AA@ 0047a56c     LIBCMTD:_testfdiv_.obj
 0002:00006578       ??_C@_1CA@CBMNPEO@?$AAs?$AAi?$AAz?$AAe?$AAI?$AAn?$AAB?$AAy?$AAt?$AAe?$AAs?$AA?5?$AA?$DO?$AA?5?$AA0?$AA?$AA@ 0047a578     LIBCMTD:cvt.obj
 0002:00006598       ??_C@_1BC@INKAPMHI@?$AA_?$AAc?$AAf?$AAt?$AAo?$AAe?$AA_?$AAl?$AA?$AA@ 0047a598     LIBCMTD:cvt.obj
 0002:000065b0       ??_C@_1GO@NCCGBNKI@?$AAf?$AA?3?$AA?2?$AAd?$AAd?$AA?2?$AAv?$AAc?$AAt?$AAo?$AAo?$AAl?$AAs?$AA?2?$AAc?$AAr?$AAt?$AA_?$AAb?$AAl?$AAd?$AA?2?$AAs?$AAe?$AAl?$AAf?$AA_?$AAx?$AA8?$AA6?$AA?2?$AAc@ 0047a5b0     LIBCMTD:cvt.obj
 0002:00006620       ??_C@_1BI@ICGGMGLK@?$AAb?$AAu?$AAf?$AA?5?$AA?$CB?$AA?$DN?$AA?5?$AAN?$AAU?$AAL?$AAL?$AA?$AA@ 0047a620     LIBCMTD:cvt.obj
 0002:00006638       ??_C@_05KLBDPFGC@e?$CL000?$AA@ 0047a638     LIBCMTD:cvt.obj
 0002:00006640       ??_C@_1LE@EOIFGNCJ@?$AAs?$AAt?$AAr?$AAc?$AAp?$AAy?$AA_?$AAs?$AA?$CI?$AAp?$AA?0?$AA?5?$AA?$CI?$AAs?$AAi?$AAz?$AAe?$AAI?$AAn?$AAB?$AAy?$AAt?$AAe?$AAs?$AA?5?$AA?$DN?$AA?$DN?$AA?5?$AA?$CI?$AAs?$AAi?$AAz@ 0047a640     LIBCMTD:cvt.obj
 0002:000066f8       ??_C@_1HE@NACBNDPP@?$AAs?$AAi?$AAz?$AAe?$AAI?$AAn?$AAB?$AAy?$AAt?$AAe?$AAs?$AA?5?$AA?$DO?$AA?5?$AA?$CI?$AAs?$AAi?$AAz?$AAe?$AA_?$AAt?$AA?$CJ?$AA?$CI?$AA3?$AA?5?$AA?$CL?$AA?5?$AA?$CI?$AAn?$AAd?$AAe?$AAc@ 0047a6f8     LIBCMTD:cvt.obj
 0002:0000676c       ??_C@_1BE@OLBNEILL@?$AA_?$AAc?$AAf?$AAt?$AAo?$AAe?$AA2?$AA_?$AAl?$AA?$AA@ 0047a76c     LIBCMTD:cvt.obj
 0002:00006780       ??_C@_1FC@IKIMAMJB@?$AAs?$AAi?$AAz?$AAe?$AAI?$AAn?$AAB?$AAy?$AAt?$AAe?$AAs?$AA?5?$AA?$DO?$AA?5?$AA?$CI?$AAs?$AAi?$AAz?$AAe?$AA_?$AAt?$AA?$CJ?$AA?$CI?$AA1?$AA?5?$AA?$CL?$AA?5?$AA4?$AA?5?$AA?$CL?$AA?5?$AAn@ 0047a780     LIBCMTD:cvt.obj
 0002:000067d4       ??_C@_1BC@JOKPCIC@?$AA_?$AAc?$AAf?$AAt?$AAo?$AAa?$AA_?$AAl?$AA?$AA@ 0047a7d4     LIBCMTD:cvt.obj
 0002:000067e8       ??_C@_1BC@DCPPLJL@?$AA_?$AAc?$AAf?$AAt?$AAo?$AAf?$AA_?$AAl?$AA?$AA@ 0047a7e8     LIBCMTD:cvt.obj
 0002:000067fc       ??_C@_1BE@CKPDLI@?$AA_?$AAc?$AAf?$AAt?$AAo?$AAf?$AA2?$AA_?$AAl?$AA?$AA@ 0047a7fc     LIBCMTD:cvt.obj
 0002:00006810       ??_C@_1BC@MPIFPLAF@?$AA_?$AAc?$AAf?$AAt?$AAo?$AAg?$AA_?$AAl?$AA?$AA@ 0047a810     LIBCMTD:cvt.obj
 0002:00006824       ??_C@_0BO@GNIAFIKK@Unknown?5Runtime?5Check?5Error?6?$AN?$AA@ 0047a824     LIBCMTD:_error_.obj
 0002:00006844       ??_C@_0CM@NGINOKPC@Stack?5memory?5around?5_alloca?5was?5@ 0047a844     LIBCMTD:_error_.obj
 0002:00006870       ??_C@_0DG@HKJMLLLP@A?5local?5variable?5was?5used?5before@ 0047a870     LIBCMTD:_error_.obj
 0002:000068a8       ??_C@_0BN@FFOINMNJ@Stack?5memory?5was?5corrupted?6?$AN?$AA@ 0047a8a8     LIBCMTD:_error_.obj
 0002:000068c8       ??_C@_0BBN@GPMLNJCF@A?5cast?5to?5a?5smaller?5data?5type?5ha@ 0047a8c8     LIBCMTD:_error_.obj
 0002:000069e8       ??_C@_0NN@NGPKDKPD@The?5value?5of?5ESP?5was?5not?5properl@ 0047a9e8     LIBCMTD:_error_.obj
 0002:00006b64       ??_C@_0CA@IODNCDPG@Run?9Time?5Check?5Failure?5?$CD?$CFd?5?9?5?$CFs?$AA@ 0047ab64     LIBCMTD:_error_.obj
 0002:00006b84       ??_C@_0BE@GNBOBNCK@Unknown?5Module?5Name?$AA@ 0047ab84     LIBCMTD:_error_.obj
 0002:00006b98       ??_C@_0BB@PFFGGCJP@Unknown?5Filename?$AA@ 0047ab98     LIBCMTD:_error_.obj
 0002:00006bb0       ??_C@_1EA@NFKNIFJP@?$AAR?$AAu?$AAn?$AA?9?$AAT?$AAi?$AAm?$AAe?$AA?5?$AAC?$AAh?$AAe?$AAc?$AAk?$AA?5?$AAF?$AAa?$AAi?$AAl?$AAu?$AAr?$AAe?$AA?5?$AA?$CD?$AA?$CF?$AAd?$AA?5?$AA?9?$AA?5?$AA?$CF?$AAs?$AA?$AA@ 0047abb0     LIBCMTD:_error_.obj
 0002:00006bf0       ??_C@_1GM@OLMCBDMB@?$AAR?$AAu?$AAn?$AAt?$AAi?$AAm?$AAe?$AA?5?$AAC?$AAh?$AAe?$AAc?$AAk?$AA?5?$AAE?$AAr?$AAr?$AAo?$AAr?$AA?4?$AA?6?$AA?$AN?$AA?5?$AAU?$AAn?$AAa?$AAb?$AAl?$AAe?$AA?5?$AAt?$AAo@ 0047abf0     LIBCMTD:_error_.obj
 0002:00006c5c       ??_C@_0CG@IAFNJNEE@Stack?5corrupted?5near?5unknown?5var@ 0047ac5c     LIBCMTD:_error_.obj
 0002:00006c88       ??_C@_0EJ@LJKNEOLN@Stack?5area?5around?5_alloca?5memory@ 0047ac88     LIBCMTD:_error_.obj
 0002:00006cd4       ??_C@_08KJEDNCKC@?$CFs?$CFs?$CFs?$CFs?$AA@ 0047acd4     LIBCMTD:_error_.obj
 0002:00006ce0       ??_C@_02LLMPMKNF@?$DO?5?$AA@ 0047ace0     LIBCMTD:_error_.obj
 0002:00006ce4       ??_C@_01EEMJAFIK@?6?$AA@   0047ace4     LIBCMTD:_error_.obj
 0002:00006ce8       ??_C@_0BC@KIBAILCI@?$CFs?$CFs?$CFp?$CFs?$CFld?$CFs?$CFd?$CFs?$AA@ 0047ace8     LIBCMTD:_error_.obj
 0002:00006d00       ??_C@_0EI@CLEPFNGI@Stack?5area?5around?5_alloca?5memory@ 0047ad00     LIBCMTD:_error_.obj
 0002:00006d48       ??_C@_0N@MHFFIMFG@?6Address?3?50x?$AA@ 0047ad48     LIBCMTD:_error_.obj
 0002:00006d58       ??_C@_07DFDJCKFN@?6Size?3?5?$AA@ 0047ad58     LIBCMTD:_error_.obj
 0002:00006d60       ??_C@_0CK@DKGBICFE@?6Allocation?5number?5within?5this?5f@ 0047ad60     LIBCMTD:_error_.obj
 0002:00006d8c       ??_C@_08OMAHNMHJ@?6Data?3?5?$DM?$AA@ 0047ad8c     LIBCMTD:_error_.obj
 0002:00006d98       ??_C@_09FOPFMPEJ@wsprintfA?$AA@ 0047ad98     LIBCMTD:_error_.obj
 0002:00006da4       ??_C@_0L@GMPLCCII@user32?4dll?$AA@ 0047ada4     LIBCMTD:_error_.obj
 0002:00006db0       ??_C@_05MKKEDADM@?$CF?42X?5?$AA@ 0047adb0     LIBCMTD:_error_.obj
 0002:00006db8       ??_C@_0DE@OHJBPMBP@A?5variable?5is?5being?5used?5without@ 0047adb8     LIBCMTD:_error_.obj
 0002:00006dec       ??_C@_0BP@OGBCLIBO@Stack?5around?5_alloca?5corrupted?$AA@ 0047adec     LIBCMTD:_userapi_.obj
 0002:00006e0c       ??_C@_0CK@CNLNOEPB@Local?5variable?5used?5before?5initi@ 0047ae0c     LIBCMTD:_userapi_.obj
 0002:00006e38       ??_C@_0BI@CIGMDCBH@Stack?5memory?5corruption?$AA@ 0047ae38     LIBCMTD:_userapi_.obj
 0002:00006e50       ??_C@_0CK@FEGOIOPB@Cast?5to?5smaller?5type?5causing?5los@ 0047ae50     LIBCMTD:_userapi_.obj
 0002:00006e7c       ??_C@_0BJ@HEGAHDFO@Stack?5pointer?5corruption?$AA@ 0047ae7c     LIBCMTD:_userapi_.obj
 0002:00006eac       ??_C@_0DP@CBBAPGOP@f?3?2dd?2vctools?2crt_bld?2self_x86?2c@ 0047aeac     LIBCMTD:chkesp.obj
 0002:00006eeb       ??_C@_00CNPNBAHC@?$AA@     0047aeeb     LIBCMTD:chkesp.obj
 0002:00006ef0       ??_C@_0NM@DNEDKLDF@The?5value?5of?5ESP?5was?5not?5properl@ 0047aef0     LIBCMTD:chkesp.obj
 0002:00006fcc       __pDestructExceptionObject 0047afcc     LIBCMTD:frame.obj
 0002:00006fd0       ??_C@_0O@DPKOEFFH@bad?5exception?$AA@ 0047afd0     LIBCMTD:frame.obj
 0002:00006fe4       ??_7bad_exception@std@@6B@ 0047afe4     LIBCMTD:frame.obj
 0002:00006fec       ??_C@_0O@NLDKAIKN@EncodePointer?$AA@ 0047afec     LIBCMTD:tidtable.obj
 0002:00006ffc       ??_C@_1BK@DBDEIDLH@?$AAK?$AAE?$AAR?$AAN?$AAE?$AAL?$AA3?$AA2?$AA?4?$AAD?$AAL?$AAL?$AA?$AA@ 0047affc     LIBCMTD:tidtable.obj
 0002:00007018       ??_C@_0O@KBPMFGHI@DecodePointer?$AA@ 0047b018     LIBCMTD:tidtable.obj
 0002:00007028       ??_C@_0DC@LMJHGCKC@f?3?2dd?2vctools?2crt_bld?2self_x86?2c@ 0047b028     LIBCMTD:tidtable.obj
 0002:0000705c       ??_C@_07PEJMOBNF@FlsFree?$AA@ 0047b05c     LIBCMTD:tidtable.obj
 0002:00007064       ??_C@_0M@JCPCPOEF@FlsSetValue?$AA@ 0047b064     LIBCMTD:tidtable.obj
 0002:00007070       ??_C@_0M@GDNOONDI@FlsGetValue?$AA@ 0047b070     LIBCMTD:tidtable.obj
 0002:0000707c       ??_C@_08KNHFBNJ@FlsAlloc?$AA@ 0047b07c     LIBCMTD:tidtable.obj
 0002:00007090       ??_C@_0CP@MKONOLCI@f?3?2dd?2vctools?2crt_bld?2self_x86?2c@ 0047b090     LIBCMTD:mlock.obj
 0002:000070c0       ??_C@_06PJIGMIJB@Client?$AA@ 0047b0c0     LIBCMTD:dbgheap.obj
 0002:000070c8       ??_C@_06KMEJCCGM@Ignore?$AA@ 0047b0c8     LIBCMTD:dbgheap.obj
 0002:000070d0       ??_C@_03OGPFLFLO@CRT?$AA@  0047b0d0     LIBCMTD:dbgheap.obj
 0002:000070d4       ??_C@_06EFAGIKOH@Normal?$AA@ 0047b0d4     LIBCMTD:dbgheap.obj
 0002:000070dc       ??_C@_04HJMOFLDF@Free?$AA@ 0047b0dc     LIBCMTD:dbgheap.obj
 0002:000070f8       ??_C@_0DC@JEMAGEKG@Error?3?5memory?5allocation?3?5bad?5me@ 0047b0f8     LIBCMTD:dbgheap.obj
 0002:0000712c       ??_C@_0CF@BICKFLAF@Invalid?5allocation?5size?3?5?$CFIu?5byt@ 0047b12c     LIBCMTD:dbgheap.obj
 0002:00007154       ??_C@_02DKCKIIND@?$CFs?$AA@ 0047b154     LIBCMTD:dbgheap.obj
 0002:00007158       ??_C@_0CB@CCLOLAHO@Client?5hook?5allocation?5failure?4?6@ 0047b158     LIBCMTD:dbgheap.obj
 0002:0000717c       ??_C@_0DF@BBEGIFEK@Client?5hook?5allocation?5failure?5a@ 0047b17c     LIBCMTD:dbgheap.obj
 0002:000071b8       ??_C@_1GC@DNJKKEAA@?$AAf?$AA?3?$AA?2?$AAd?$AAd?$AA?2?$AAv?$AAc?$AAt?$AAo?$AAo?$AAl?$AAs?$AA?2?$AAc?$AAr?$AAt?$AA_?$AAb?$AAl?$AAd?$AA?2?$AAs?$AAe?$AAl?$AAf?$AA_?$AAx?$AA8?$AA6?$AA?2?$AAc@ 0047b1b8     LIBCMTD:dbgheap.obj
 0002:0000721c       ??_C@_1CE@LJFEPPMP@?$AA_?$AAC?$AAr?$AAt?$AAC?$AAh?$AAe?$AAc?$AAk?$AAM?$AAe?$AAm?$AAo?$AAr?$AAy?$AA?$CI?$AA?$CJ?$AA?$AA@ 0047b21c     LIBCMTD:dbgheap.obj
 0002:00007240       ??_C@_1CC@CKBDKDFF@?$AA_?$AAc?$AAa?$AAl?$AAl?$AAo?$AAc?$AA_?$AAd?$AAb?$AAg?$AA_?$AAi?$AAm?$AAp?$AAl?$AA?$AA@ 0047b240     LIBCMTD:dbgheap.obj
 0002:00007264       ??_C@_1DO@MEOGCGBN@?$AA?$CI?$AA_?$AAH?$AAE?$AAA?$AAP?$AA_?$AAM?$AAA?$AAX?$AAR?$AAE?$AAQ?$AA?5?$AA?1?$AA?5?$AAn?$AAN?$AAu?$AAm?$AA?$CJ?$AA?5?$AA?$DO?$AA?$DN?$AA?5?$AAn?$AAS?$AAi?$AAz?$AAe?$AA?$AA@ 0047b264     LIBCMTD:dbgheap.obj
 0002:000072a4       ??_C@_1DE@KOOKLFBB@?$AA_?$AAp?$AAF?$AAi?$AAr?$AAs?$AAt?$AAB?$AAl?$AAo?$AAc?$AAk?$AA?5?$AA?$DN?$AA?$DN?$AA?5?$AAp?$AAO?$AAl?$AAd?$AAB?$AAl?$AAo?$AAc?$AAk?$AA?$AA@ 0047b2a4     LIBCMTD:dbgheap.obj
 0002:000072d8       ??_C@_1DC@GEFKNOOL@?$AA_?$AAp?$AAL?$AAa?$AAs?$AAt?$AAB?$AAl?$AAo?$AAc?$AAk?$AA?5?$AA?$DN?$AA?$DN?$AA?5?$AAp?$AAO?$AAl?$AAd?$AAB?$AAl?$AAo?$AAc?$AAk?$AA?$AA@ 0047b2d8     LIBCMTD:dbgheap.obj
 0002:00007310       ??_C@_1GE@PCKLOLAO@?$AAf?$AAR?$AAe?$AAa?$AAl?$AAl?$AAo?$AAc?$AA?5?$AA?$HM?$AA?$HM?$AA?5?$AA?$CI?$AA?$CB?$AAf?$AAR?$AAe?$AAa?$AAl?$AAl?$AAo?$AAc?$AA?5?$AA?$CG?$AA?$CG?$AA?5?$AAp?$AAN?$AAe?$AAw?$AAB?$AAl@ 0047b310     LIBCMTD:dbgheap.obj
 0002:00007374       ??_C@_0DA@HFBKENN@Error?3?5possible?5heap?5corruption?5@ 0047b374     LIBCMTD:dbgheap.obj
 0002:000073a8       ??_C@_1IK@DCPKDGNH@?$AAp?$AAO?$AAl?$AAd?$AAB?$AAl?$AAo?$AAc?$AAk?$AA?9?$AA?$DO?$AAn?$AAL?$AAi?$AAn?$AAe?$AA?5?$AA?$DN?$AA?$DN?$AA?5?$AAI?$AAG?$AAN?$AAO?$AAR?$AAE?$AA_?$AAL?$AAI?$AAN?$AAE?$AA?5@ 0047b3a8     LIBCMTD:dbgheap.obj
 0002:00007438       ??_C@_1EE@GFOPCECE@?$AA_?$AAC?$AAr?$AAt?$AAI?$AAs?$AAV?$AAa?$AAl?$AAi?$AAd?$AAH?$AAe?$AAa?$AAp?$AAP?$AAo?$AAi?$AAn?$AAt?$AAe?$AAr?$AA?$CI?$AAp?$AAU?$AAs?$AAe?$AAr?$AAD?$AAa?$AAt?$AAa@ 0047b438     LIBCMTD:dbgheap.obj
 0002:00007480       ??_C@_0EM@LGFLMAGJ@The?5Block?5at?50x?$CFp?5was?5allocated?5@ 0047b480     LIBCMTD:dbgheap.obj
 0002:000074d0       ??_C@_0FA@EFEIGJKG@Error?3?5memory?5allocation?3?5bad?5me@ 0047b4d0     LIBCMTD:dbgheap.obj
 0002:00007520       ??_C@_0ED@GPCPBAGP@Invalid?5allocation?5size?3?5?$CFIu?5byt@ 0047b520     LIBCMTD:dbgheap.obj
 0002:00007564       ??_C@_0CE@DOFMDOL@Client?5hook?5re?9allocation?5failur@ 0047b564     LIBCMTD:dbgheap.obj
 0002:00007588       ??_C@_0DI@KKJPDPGM@Client?5hook?5re?9allocation?5failur@ 0047b588     LIBCMTD:dbgheap.obj
 0002:000075c0       ??_C@_1BM@OKFKJCEN@?$AA_?$AAr?$AAe?$AAc?$AAa?$AAl?$AAl?$AAo?$AAc?$AA_?$AAd?$AAb?$AAg?$AA?$AA@ 0047b5c0     LIBCMTD:dbgheap.obj
 0002:000075dc       ??_C@_1DO@GOKJCEHJ@?$AA?$CI?$AA_?$AAH?$AAE?$AAA?$AAP?$AA_?$AAM?$AAA?$AAX?$AAR?$AAE?$AAQ?$AA?5?$AA?1?$AA?5?$AAc?$AAo?$AAu?$AAn?$AAt?$AA?$CJ?$AA?5?$AA?$DO?$AA?$DN?$AA?5?$AAs?$AAi?$AAz?$AAe?$AA?$AA@ 0047b5dc     LIBCMTD:dbgheap.obj
 0002:0000761c       ??_C@_1BI@HAPNGHDP@?$AA_?$AAe?$AAx?$AAp?$AAa?$AAn?$AAd?$AA_?$AAd?$AAb?$AAg?$AA?$AA@ 0047b61c     LIBCMTD:dbgheap.obj
 0002:00007634       ??_C@_1CE@CJACEFBA@?$AAp?$AAU?$AAs?$AAe?$AAr?$AAD?$AAa?$AAt?$AAa?$AA?5?$AA?$CB?$AA?$DN?$AA?5?$AAN?$AAU?$AAL?$AAL?$AA?$AA@ 0047b634     LIBCMTD:dbgheap.obj
 0002:00007658       ??_C@_1CM@MMAADDMD@?$AA_?$AAp?$AAF?$AAi?$AAr?$AAs?$AAt?$AAB?$AAl?$AAo?$AAc?$AAk?$AA?5?$AA?$DN?$AA?$DN?$AA?5?$AAp?$AAH?$AAe?$AAa?$AAd?$AA?$AA@ 0047b658     LIBCMTD:dbgheap.obj
 0002:00007684       ??_C@_1CK@DMAGEMBG@?$AA_?$AAp?$AAL?$AAa?$AAs?$AAt?$AAB?$AAl?$AAo?$AAc?$AAk?$AA?5?$AA?$DN?$AA?$DN?$AA?5?$AAp?$AAH?$AAe?$AAa?$AAd?$AA?$AA@ 0047b684     LIBCMTD:dbgheap.obj
 0002:000076b0       ??_C@_1DM@ODCJIDCP@?$AAp?$AAH?$AAe?$AAa?$AAd?$AA?9?$AA?$DO?$AAn?$AAB?$AAl?$AAo?$AAc?$AAk?$AAU?$AAs?$AAe?$AA?5?$AA?$DN?$AA?$DN?$AA?5?$AAn?$AAB?$AAl?$AAo?$AAc?$AAk?$AAU?$AAs?$AAe?$AA?$AA@ 0047b6b0     LIBCMTD:dbgheap.obj
 0002:000076f0       ??_C@_1HK@HPCBMDFG@?$AAp?$AAH?$AAe?$AAa?$AAd?$AA?9?$AA?$DO?$AAn?$AAL?$AAi?$AAn?$AAe?$AA?5?$AA?$DN?$AA?$DN?$AA?5?$AAI?$AAG?$AAN?$AAO?$AAR?$AAE?$AA_?$AAL?$AAI?$AAN?$AAE?$AA?5?$AA?$CG?$AA?$CG?$AA?5?$AAp@ 0047b6f0     LIBCMTD:dbgheap.obj
 0002:00007770       ??_C@_0IG@LEMBDCJK@HEAP?5CORRUPTION?5DETECTED?3?5after?5@ 0047b770     LIBCMTD:dbgheap.obj
 0002:000077f8       ??_C@_0KE@MBMNHHHN@HEAP?5CORRUPTION?5DETECTED?3?5after?5@ 0047b7f8     LIBCMTD:dbgheap.obj
 0002:000078a0       ??_C@_0IK@PJCGLBOB@HEAP?5CORRUPTION?5DETECTED?3?5before@ 0047b8a0     LIBCMTD:dbgheap.obj
 0002:00007930       ??_C@_0KI@JGFOHMEB@HEAP?5CORRUPTION?5DETECTED?3?5before@ 0047b930     LIBCMTD:dbgheap.obj
 0002:000079d8       ??_C@_0BL@KEIPLFAC@Client?5hook?5free?5failure?4?6?$AA@ 0047b9d8     LIBCMTD:dbgheap.obj
 0002:000079f8       ??_C@_0EJ@HEIBCIMJ@The?5Block?5at?50x?$CFp?5was?5allocated?5@ 0047b9f8     LIBCMTD:dbgheap.obj
 0002:00007a44       ??_C@_1BG@MBKOGDLD@?$AA_?$AAm?$AAs?$AAi?$AAz?$AAe?$AA_?$AAd?$AAb?$AAg?$AA?$AA@ 0047ba44     LIBCMTD:dbgheap.obj
 0002:00007a5c       ??_C@_0CI@JMLBEDHJ@?$CFhs?5located?5at?50x?$CFp?5is?5?$CFIu?5bytes@ 0047ba5c     LIBCMTD:dbgheap.obj
 0002:00007a88       ??_C@_0EG@DGJMPDBH@?$CFhs?5located?5at?50x?$CFp?5is?5?$CFIu?5bytes@ 0047ba88     LIBCMTD:dbgheap.obj
 0002:00007ad0       ??_C@_0IC@BBJIOOJH@HEAP?5CORRUPTION?5DETECTED?3?5on?5top@ 0047bad0     LIBCMTD:dbgheap.obj
 0002:00007b58       ??_C@_0KA@IHNJJKPL@HEAP?5CORRUPTION?5DETECTED?3?5on?5top@ 0047bb58     LIBCMTD:dbgheap.obj
 0002:00007bf8       ??_C@_07OHKEFPKJ@DAMAGED?$AA@ 0047bbf8     LIBCMTD:dbgheap.obj
 0002:00007c00       ??_C@_0CL@HNNNMKMJ@_heapchk?5fails?5with?5unknown?5retu@ 0047bc00     LIBCMTD:dbgheap.obj
 0002:00007c2c       ??_C@_0CC@MFFCHFHO@_heapchk?5fails?5with?5_HEAPBADPTR?4@ 0047bc2c     LIBCMTD:dbgheap.obj
 0002:00007c50       ??_C@_0CC@MJGLGBDG@_heapchk?5fails?5with?5_HEAPBADEND?4@ 0047bc50     LIBCMTD:dbgheap.obj
 0002:00007c74       ??_C@_0CD@CPKEAPBD@_heapchk?5fails?5with?5_HEAPBADNODE@ 0047bc74     LIBCMTD:dbgheap.obj
 0002:00007c98       ??_C@_0CE@MKKHMBMK@_heapchk?5fails?5with?5_HEAPBADBEGI@ 0047bc98     LIBCMTD:dbgheap.obj
 0002:00007cbc       ??_C@_1BO@GJFDNMNF@?$AA_?$AAC?$AAr?$AAt?$AAS?$AAe?$AAt?$AAD?$AAb?$AAg?$AAF?$AAl?$AAa?$AAg?$AA?$AA@ 0047bcbc     LIBCMTD:dbgheap.obj
 0002:00007ce0       ??_C@_1BHO@NNANJNF@?$AA?$CI?$AAf?$AAN?$AAe?$AAw?$AAB?$AAi?$AAt?$AAs?$AA?$DN?$AA?$DN?$AA_?$AAC?$AAR?$AAT?$AAD?$AAB?$AAG?$AA_?$AAR?$AAE?$AAP?$AAO?$AAR?$AAT?$AA_?$AAF?$AAL?$AAA?$AAG?$AA?$CJ?$AA?5@ 0047bce0     LIBCMTD:dbgheap.obj
 0002:00007e60       ??_C@_1DE@GJCKCKEC@?$AA_?$AAC?$AAr?$AAt?$AAD?$AAo?$AAF?$AAo?$AAr?$AAA?$AAl?$AAl?$AAC?$AAl?$AAi?$AAe?$AAn?$AAt?$AAO?$AAb?$AAj?$AAe?$AAc?$AAt?$AAs?$AA?$AA@ 0047be60     LIBCMTD:dbgheap.obj
 0002:00007e94       ??_C@_1BI@CJGCEEDL@?$AAp?$AAf?$AAn?$AA?5?$AA?$CB?$AA?$DN?$AA?5?$AAN?$AAU?$AAL?$AAL?$AA?$AA@ 0047be94     LIBCMTD:dbgheap.obj
 0002:00007eac       ??_C@_0CB@EAAIGELO@Bad?5memory?5block?5found?5at?50x?$CFp?4?6@ 0047beac     LIBCMTD:dbgheap.obj
 0002:00007ed0       ??_C@_0DP@LEFMFBOD@Bad?5memory?5block?5found?5at?50x?$CFp?4?6@ 0047bed0     LIBCMTD:dbgheap.obj
 0002:00007f10       ??_C@_1CE@NJJKELF@?$AA_?$AAC?$AAr?$AAt?$AAM?$AAe?$AAm?$AAC?$AAh?$AAe?$AAc?$AAk?$AAp?$AAo?$AAi?$AAn?$AAt?$AA?$AA@ 0047bf10     LIBCMTD:dbgheap.obj
 0002:00007f34       ??_C@_1BM@MIMANDHC@?$AAs?$AAt?$AAa?$AAt?$AAe?$AA?5?$AA?$CB?$AA?$DN?$AA?5?$AAN?$AAU?$AAL?$AAL?$AA?$AA@ 0047bf34     LIBCMTD:dbgheap.obj
 0002:00007f50       ??_C@_1CC@DFPEDFBP@?$AAn?$AAe?$AAw?$AAS?$AAt?$AAa?$AAt?$AAe?$AA?5?$AA?$CB?$AA?$DN?$AA?5?$AAN?$AAU?$AAL?$AAL?$AA?$AA@ 0047bf50     LIBCMTD:dbgheap.obj
 0002:00007f74       ??_C@_1CC@DHPFEMMN@?$AAo?$AAl?$AAd?$AAS?$AAt?$AAa?$AAt?$AAe?$AA?5?$AA?$CB?$AA?$DN?$AA?5?$AAN?$AAU?$AAL?$AAL?$AA?$AA@ 0047bf74     LIBCMTD:dbgheap.obj
 0002:00007f98       ??_C@_1CE@PDIENACM@?$AA_?$AAC?$AAr?$AAt?$AAM?$AAe?$AAm?$AAD?$AAi?$AAf?$AAf?$AAe?$AAr?$AAe?$AAn?$AAc?$AAe?$AA?$AA@ 0047bf98     LIBCMTD:dbgheap.obj
 0002:00007fbc       ??_C@_0BH@GFGKJDCO@Object?5dump?5complete?4?6?$AA@ 0047bfbc     LIBCMTD:dbgheap.obj
 0002:00007fd4       ??_C@_0DA@MDLBNIBM@crt?5block?5at?50x?$CFp?0?5subtype?5?$CFx?0?5?$CF@ 0047bfd4     LIBCMTD:dbgheap.obj
 0002:00008004       ??_C@_0CH@FAGDDGPN@normal?5block?5at?50x?$CFp?0?5?$CFIu?5bytes?5@ 0047c004     LIBCMTD:dbgheap.obj
 0002:0000802c       ??_C@_0DD@GHNAAKBB@client?5block?5at?50x?$CFp?0?5subtype?5?$CFx@ 0047c02c     LIBCMTD:dbgheap.obj
 0002:00008060       ??_C@_06PKLGBFGM@?$HL?$CFld?$HN?5?$AA@ 0047c060     LIBCMTD:dbgheap.obj
 0002:00008068       ??_C@_0L@JMEFFCCJ@?$CFhs?$CI?$CFd?$CJ?5?3?5?$AA@ 0047c068     LIBCMTD:dbgheap.obj
 0002:00008074       ??_C@_0BE@OIEFNFL@?$CDFile?5Error?$CD?$CI?$CFd?$CJ?5?3?5?$AA@ 0047c074     LIBCMTD:dbgheap.obj
 0002:00008088       ??_C@_0BE@KCIPKCIA@Dumping?5objects?5?9?$DO?6?$AA@ 0047c088     LIBCMTD:dbgheap.obj
 0002:0000809c       ??_C@_0BA@HJBKCELP@?5Data?3?5?$DM?$CFs?$DO?5?$CFs?6?$AA@ 0047c09c     LIBCMTD:dbgheap.obj
 0002:000080ac       ??_C@_1CG@LPFIACGM@?$AA_?$AAp?$AAr?$AAi?$AAn?$AAt?$AAM?$AAe?$AAm?$AAB?$AAl?$AAo?$AAc?$AAk?$AAD?$AAa?$AAt?$AAa?$AA?$AA@ 0047c0ac     LIBCMTD:dbgheap.obj
 0002:000080d4       ??_C@_0BI@JBFPOEJA@Detected?5memory?5leaks?$CB?6?$AA@ 0047c0d4     LIBCMTD:dbgheap.obj
 0002:000080ec       ??_C@_0BP@DEDHGGGI@Total?5allocations?3?5?$CFId?5bytes?4?6?$AA@ 0047c0ec     LIBCMTD:dbgheap.obj
 0002:0000810c       ??_C@_0CB@BLHDAFNE@Largest?5number?5used?3?5?$CFId?5bytes?4?6@ 0047c10c     LIBCMTD:dbgheap.obj
 0002:00008130       ??_C@_0BO@DACNIABB@?$CFId?5bytes?5in?5?$CFId?5?$CFhs?5Blocks?4?6?$AA@ 0047c130     LIBCMTD:dbgheap.obj
 0002:00008150       ??_C@_1CM@MPNIBKGK@?$AA_?$AAC?$AAr?$AAt?$AAM?$AAe?$AAm?$AAD?$AAu?$AAm?$AAp?$AAS?$AAt?$AAa?$AAt?$AAi?$AAs?$AAt?$AAi?$AAc?$AAs?$AA?$AA@ 0047c150     LIBCMTD:dbgheap.obj
 0002:0000817c       ??_C@_1DK@LFLKFPDA@?$AAo?$AAf?$AAf?$AAs?$AAe?$AAt?$AA?5?$AA?$DN?$AA?$DN?$AA?5?$AA0?$AA?5?$AA?$HM?$AA?$HM?$AA?5?$AAo?$AAf?$AAf?$AAs?$AAe?$AAt?$AA?5?$AA?$DM?$AA?5?$AAs?$AAi?$AAz?$AAe?$AA?$AA@ 0047c17c     LIBCMTD:dbgheap.obj
 0002:000081b8       ??_C@_1DG@DONCJBBJ@?$AA_?$AAa?$AAl?$AAi?$AAg?$AAn?$AAe?$AAd?$AA_?$AAo?$AAf?$AAf?$AAs?$AAe?$AAt?$AA_?$AAm?$AAa?$AAl?$AAl?$AAo?$AAc?$AA_?$AAd?$AAb?$AAg?$AA?$AA@ 0047c1b8     LIBCMTD:dbgheap.obj
 0002:000081f0       ??_C@_1CE@NPMGPNNP@?$AAI?$AAS?$AA_?$AA2?$AA_?$AAP?$AAO?$AAW?$AA_?$AAN?$AA?$CI?$AAa?$AAl?$AAi?$AAg?$AAn?$AA?$CJ?$AA?$AA@ 0047c1f0     LIBCMTD:dbgheap.obj
 0002:00008214       ??_C@_1DI@NINIKFFK@?$AA_?$AAa?$AAl?$AAi?$AAg?$AAn?$AAe?$AAd?$AA_?$AAo?$AAf?$AAf?$AAs?$AAe?$AAt?$AA_?$AAr?$AAe?$AAa?$AAl?$AAl?$AAo?$AAc?$AA_?$AAd?$AAb?$AAg?$AA?$AA@ 0047c214     LIBCMTD:dbgheap.obj
 0002:0000824c       ??_C@_0DL@PGHMMKNE@Damage?5before?50x?$CFp?5which?5was?5all@ 0047c24c     LIBCMTD:dbgheap.obj
 0002:00008288       ??_C@_0EI@NDNJMAJK@The?5block?5at?50x?$CFp?5was?5not?5alloca@ 0047c288     LIBCMTD:dbgheap.obj
 0002:000082d0       ??_C@_1DK@MMLHIFFH@?$AA_?$AAa?$AAl?$AAi?$AAg?$AAn?$AAe?$AAd?$AA_?$AAo?$AAf?$AAf?$AAs?$AAe?$AAt?$AA_?$AAr?$AAe?$AAc?$AAa?$AAl?$AAl?$AAo?$AAc?$AA_?$AAd?$AAb?$AAg?$AA?$AA@ 0047c2d0     LIBCMTD:dbgheap.obj
 0002:00008310       ??_C@_0EF@PGELACII@The?5block?5at?50x?$CFp?5was?5not?5alloca@ 0047c310     LIBCMTD:dbgheap.obj
 0002:00008358       ??_C@_1CG@CEGMHIMN@?$AA_?$AAa?$AAl?$AAi?$AAg?$AAn?$AAe?$AAd?$AA_?$AAm?$AAs?$AAi?$AAz?$AAe?$AA_?$AAd?$AAb?$AAg?$AA?$AA@ 0047c358     LIBCMTD:dbgheap.obj
 0002:00008380       ??_C@_1CC@MOBIKHH@?$AAm?$AAe?$AAm?$AAb?$AAl?$AAo?$AAc?$AAk?$AA?5?$AA?$CB?$AA?$DN?$AA?5?$AAN?$AAU?$AAL?$AAL?$AA?$AA@ 0047c380     LIBCMTD:dbgheap.obj
 0002:000083a4       ??_C@_0DA@HMCPFNKN@f?3?2dd?2vctools?2crt_bld?2self_x86?2c@ 0047c3a4     LIBCMTD:onexit.obj
 0002:000083d8       ??_C@_1GG@CDHAPCGF@?$AAf?$AA?3?$AA?2?$AAd?$AAd?$AA?2?$AAv?$AAc?$AAt?$AAo?$AAo?$AAl?$AAs?$AA?2?$AAc?$AAr?$AAt?$AA_?$AAb?$AAl?$AAd?$AA?2?$AAs?$AAe?$AAl?$AAf?$AA_?$AAx?$AA8?$AA6?$AA?2?$AAc@ 0047c3d8     LIBCMTD:handler.obj
 0002:00008440       ??_C@_1BC@JLLICHIC@?$AAp?$AAn?$AAh?$AA?5?$AA?$DN?$AA?$DN?$AA?5?$AA0?$AA?$AA@ 0047c440     LIBCMTD:handler.obj
 0002:00008458       ??_C@_1HO@MLMGPAFH@?$AA?$CI?$AA?$CC?$AAi?$AAn?$AAc?$AAo?$AAn?$AAs?$AAi?$AAs?$AAt?$AAe?$AAn?$AAt?$AA?5?$AAI?$AAO?$AAB?$AA?5?$AAf?$AAi?$AAe?$AAl?$AAd?$AAs?$AA?$CC?$AA?0?$AA?5?$AAs?$AAt?$AAr?$AAe@ 0047c458     LIBCMTD:_flsbuf.obj
 0002:000084d8       ??_C@_1GC@GNCCMPNN@?$AAf?$AA?3?$AA?2?$AAd?$AAd?$AA?2?$AAv?$AAc?$AAt?$AAo?$AAo?$AAl?$AAs?$AA?2?$AAc?$AAr?$AAt?$AA_?$AAb?$AAl?$AAd?$AA?2?$AAs?$AAe?$AAl?$AAf?$AA_?$AAx?$AA8?$AA6?$AA?2?$AAc@ 0047c4d8     LIBCMTD:_flsbuf.obj
 0002:0000853c       ??_C@_1BI@MFCLPIBM@?$AAs?$AAt?$AAr?$AA?5?$AA?$CB?$AA?$DN?$AA?5?$AAN?$AAU?$AAL?$AAL?$AA?$AA@ 0047c53c     LIBCMTD:_flsbuf.obj
 0002:00008554       ??_C@_1O@CEDCILHN@?$AA?$CI?$AAn?$AAu?$AAl?$AAl?$AA?$CJ?$AA?$AA@ 0047c554     LIBCMTD:output.obj
 0002:00008564       ??_C@_06OJHGLDPL@?$CInull?$CJ?$AA@ 0047c564     LIBCMTD:output.obj
 0002:00008570       ___lookuptable             0047c570     LIBCMTD:output.obj
 0002:000085cc       ??_C@_0DA@NFBEBPEE@f?3?2dd?2vctools?2crt_bld?2self_x86?2c@ 0047c5cc     LIBCMTD:output.obj
 0002:00008600       ??_C@_1EK@PNGFDECN@?$AA?$CI?$AA?$CC?$AA?8?$AAn?$AA?8?$AA?5?$AAf?$AAo?$AAr?$AAm?$AAa?$AAt?$AA?5?$AAs?$AAp?$AAe?$AAc?$AAi?$AAf?$AAi?$AAe?$AAr?$AA?5?$AAd?$AAi?$AAs?$AAa?$AAb?$AAl?$AAe?$AAd?$AA?$CC@ 0047c600     LIBCMTD:output.obj
 0002:0000864c       ??_C@_1CC@IFFHEMNF@?$AA?$CI?$AAc?$AAh?$AA?5?$AA?$CB?$AA?$DN?$AA?5?$AA_?$AAT?$AA?$CI?$AA?8?$AA?2?$AA0?$AA?8?$AA?$CJ?$AA?$CJ?$AA?$AA@ 0047c64c     LIBCMTD:output.obj
 0002:00008670       ??_C@_1BAA@ODEGEDCK@?$AA?$CI?$AA?5?$AA?$CI?$AA_?$AAS?$AAt?$AAr?$AAe?$AAa?$AAm?$AA?9?$AA?$DO?$AA_?$AAf?$AAl?$AAa?$AAg?$AA?5?$AA?$CG?$AA?5?$AA_?$AAI?$AAO?$AAS?$AAT?$AAR?$AAG?$AA?$CJ?$AA?5?$AA?$HM?$AA?$HM?$AA?5@ 0047c670     LIBCMTD:output.obj
 0002:00008770       ??_C@_1BE@IONLIDNC@?$AA_?$AAo?$AAu?$AAt?$AAp?$AAu?$AAt?$AA_?$AAl?$AA?$AA@ 0047c770     LIBCMTD:output.obj
 0002:00008788       ??_C@_1GA@HHFOFBLN@?$AAf?$AA?3?$AA?2?$AAd?$AAd?$AA?2?$AAv?$AAc?$AAt?$AAo?$AAo?$AAl?$AAs?$AA?2?$AAc?$AAr?$AAt?$AA_?$AAb?$AAl?$AAd?$AA?2?$AAs?$AAe?$AAl?$AAf?$AA_?$AAx?$AA8?$AA6?$AA?2?$AAc@ 0047c788     LIBCMTD:output.obj
 0002:000087e8       ??_C@_1CC@FADMNIL@?$AA?$CI?$AAs?$AAt?$AAr?$AAe?$AAa?$AAm?$AA?5?$AA?$CB?$AA?$DN?$AA?5?$AAN?$AAU?$AAL?$AAL?$AA?$CJ?$AA?$AA@ 0047c7e8     LIBCMTD:output.obj
 0002:0000880c       ??_C@_1BG@KCMPBBDK@?$AA_?$AAg?$AAe?$AAt?$AA_?$AAe?$AAr?$AAr?$AAn?$AAo?$AA?$AA@ 0047c80c     LIBCMTD:dosmap.obj
 0002:00008828       ??_C@_1GA@MFGIMPNL@?$AAf?$AA?3?$AA?2?$AAd?$AAd?$AA?2?$AAv?$AAc?$AAt?$AAo?$AAo?$AAl?$AAs?$AA?2?$AAc?$AAr?$AAt?$AA_?$AAb?$AAl?$AAd?$AA?2?$AAs?$AAe?$AAl?$AAf?$AA_?$AAx?$AA8?$AA6?$AA?2?$AAc@ 0047c828     LIBCMTD:dosmap.obj
 0002:00008888       ??_C@_1BO@LKEBEKJP@?$AAp?$AAV?$AAa?$AAl?$AAu?$AAe?$AA?5?$AA?$CB?$AA?$DN?$AA?5?$AAN?$AAU?$AAL?$AAL?$AA?$AA@ 0047c888     LIBCMTD:dosmap.obj
 0002:000088a8       ??_C@_1BM@INIPHHDD@?$AA_?$AAg?$AAe?$AAt?$AA_?$AAd?$AAo?$AAs?$AAe?$AAr?$AAr?$AAn?$AAo?$AA?$AA@ 0047c8a8     LIBCMTD:dosmap.obj
 0002:000088c4       ??_C@_1BI@IGILPKD@?$AA_?$AAv?$AAs?$AAp?$AAr?$AAi?$AAn?$AAt?$AAf?$AA_?$AAl?$AA?$AA@ 0047c8c4     LIBCMTD:vsprintf.obj
 0002:000088e0       ??_C@_1GE@DPADKNCG@?$AAf?$AA?3?$AA?2?$AAd?$AAd?$AA?2?$AAv?$AAc?$AAt?$AAo?$AAo?$AAl?$AAs?$AA?2?$AAc?$AAr?$AAt?$AA_?$AAb?$AAl?$AAd?$AA?2?$AAs?$AAe?$AAl?$AAf?$AA_?$AAx?$AA8?$AA6?$AA?2?$AAc@ 0047c8e0     LIBCMTD:vsprintf.obj
 0002:00008944       ??_C@_1CE@HMKDJHB@?$AA_?$AAv?$AAs?$AAc?$AAp?$AAr?$AAi?$AAn?$AAt?$AAf?$AA_?$AAh?$AAe?$AAl?$AAp?$AAe?$AAr?$AA?$AA@ 0047c944     LIBCMTD:vsprintf.obj
 0002:00008968       ??_C@_1EC@FABAOFFO@?$AA?$CI?$AAc?$AAo?$AAu?$AAn?$AAt?$AA?5?$AA?$DN?$AA?$DN?$AA?5?$AA0?$AA?$CJ?$AA?5?$AA?$HM?$AA?$HM?$AA?5?$AA?$CI?$AAs?$AAt?$AAr?$AAi?$AAn?$AAg?$AA?5?$AA?$CB?$AA?$DN?$AA?5?$AAN?$AAU?$AAL?$AAL?$AA?$CJ@ 0047c968     LIBCMTD:vsnprnc.obj
 0002:000089ac       ??_C@_1CE@PCFPEIFI@?$AA_?$AAv?$AAs?$AAn?$AAp?$AAr?$AAi?$AAn?$AAt?$AAf?$AA_?$AAh?$AAe?$AAl?$AAp?$AAe?$AAr?$AA?$AA@ 0047c9ac     LIBCMTD:vsnprnc.obj
 0002:000089d0       ??_C@_1DA@HPBFKMEB@?$AA?$CI?$AA?$CC?$AAB?$AAu?$AAf?$AAf?$AAe?$AAr?$AA?5?$AAt?$AAo?$AAo?$AA?5?$AAs?$AAm?$AAa?$AAl?$AAl?$AA?$CC?$AA?0?$AA?5?$AA0?$AA?$CJ?$AA?$AA@ 0047c9d0     LIBCMTD:vsnprnc.obj
 0002:00008a00       ??_C@_1EE@OKCKIGFK@?$AAs?$AAt?$AAr?$AAi?$AAn?$AAg?$AA?5?$AA?$CB?$AA?$DN?$AA?5?$AAN?$AAU?$AAL?$AAL?$AA?5?$AA?$CG?$AA?$CG?$AA?5?$AAs?$AAi?$AAz?$AAe?$AAI?$AAn?$AAB?$AAy?$AAt?$AAe?$AAs?$AA?5?$AA?$DO?$AA?5@ 0047ca00     LIBCMTD:vsnprnc.obj
 0002:00008a44       ??_C@_1BM@BLJALHEF@?$AA_?$AAv?$AAs?$AAp?$AAr?$AAi?$AAn?$AAt?$AAf?$AA_?$AAs?$AA_?$AAl?$AA?$AA@ 0047ca44     LIBCMTD:vsnprnc.obj
 0002:00008a60       ??_C@_1BO@MLMCMBKN@?$AAf?$AAo?$AAr?$AAm?$AAa?$AAt?$AA?5?$AA?$CB?$AA?$DN?$AA?5?$AAN?$AAU?$AAL?$AAL?$AA?$AA@ 0047ca60     LIBCMTD:vsnprnc.obj
 0002:00008a80       ??_C@_1BO@MMPELNIM@?$AA_?$AAv?$AAs?$AAn?$AAp?$AAr?$AAi?$AAn?$AAt?$AAf?$AA_?$AAs?$AA_?$AAl?$AA?$AA@ 0047ca80     LIBCMTD:vsnprnc.obj
 0002:00008aa0       ??_C@_1HG@KNCBMCDD@?$AAf?$AA?3?$AA?2?$AAd?$AAd?$AA?2?$AAv?$AAc?$AAt?$AAo?$AAo?$AAl?$AAs?$AA?2?$AAc?$AAr?$AAt?$AA_?$AAb?$AAl?$AAd?$AA?2?$AAs?$AAe?$AAl?$AAf?$AA_?$AAx?$AA8?$AA6?$AA?2?$AAc@ 0047caa0     LIBCMTD:typname.obj
 0002:00008b18       ??_C@_1CI@IDCGDBOP@?$AAp?$AAN?$AAo?$AAd?$AAe?$AA?9?$AA?$DO?$AAn?$AAe?$AAx?$AAt?$AA?5?$AA?$CB?$AA?$DN?$AA?5?$AAN?$AAU?$AAL?$AAL?$AA?$AA@ 0047cb18     LIBCMTD:typname.obj
 0002:00008b40       ??_C@_1JK@MLBKHELP@?$AAs?$AAt?$AAr?$AAc?$AAp?$AAy?$AA_?$AAs?$AA?5?$AA?$CI?$AA?$CI?$AAc?$AAh?$AAa?$AAr?$AA?5?$AA?$CK?$AA?$CJ?$AA?$CI?$AA?$CI?$AAt?$AAy?$AAp?$AAe?$AA_?$AAi?$AAn?$AAf?$AAo?$AA?5?$AA?$CK?$AA?$CJ@ 0047cb40     LIBCMTD:typname.obj
 0002:00008bdc       ??_C@_1CM@OOICDMK@?$AAt?$AAy?$AAp?$AAe?$AA_?$AAi?$AAn?$AAf?$AAo?$AA?3?$AA?3?$AA_?$AAN?$AAa?$AAm?$AAe?$AA_?$AAb?$AAa?$AAs?$AAe?$AA?$AA@ 0047cbdc     LIBCMTD:typname.obj
 0002:00008c08       ??_C@_1GI@EAJKJPED@?$AAs?$AAt?$AAr?$AAc?$AAp?$AAy?$AA_?$AAs?$AA?5?$AA?$CI?$AAp?$AAT?$AAm?$AAp?$AAT?$AAy?$AAp?$AAe?$AAN?$AAa?$AAm?$AAe?$AA?0?$AA?5?$AAl?$AAe?$AAn?$AA?$CL?$AA2?$AA?0?$AA?5?$AA?$CI@ 0047cc08     LIBCMTD:typname.obj
 0002:00008c70       ??_C@_1DO@OJJLFJPE@?$AAt?$AAy?$AAp?$AAe?$AA_?$AAi?$AAn?$AAf?$AAo?$AA?3?$AA?3?$AA_?$AAN?$AAa?$AAm?$AAe?$AA_?$AAb?$AAa?$AAs?$AAe?$AA_?$AAi?$AAn?$AAt?$AAe?$AAr?$AAn?$AAa?$AAl?$AA?$AA@ 0047cc70     LIBCMTD:typname.obj
 0002:00008cb0       ??_C@_1DM@MADKGDLO@?$AA?$CI?$AAL?$AA?$CC?$AAB?$AAu?$AAf?$AAf?$AAe?$AAr?$AA?5?$AAi?$AAs?$AA?5?$AAt?$AAo?$AAo?$AA?5?$AAs?$AAm?$AAa?$AAl?$AAl?$AA?$CC?$AA?5?$AA?$CG?$AA?$CG?$AA?5?$AA0?$AA?$CJ?$AA?$AA@ 0047ccb0     LIBCMTD:strcpy_s.obj
 0002:00008cec       ??_C@_1CI@HCPHDDLE@?$AAB?$AAu?$AAf?$AAf?$AAe?$AAr?$AA?5?$AAi?$AAs?$AA?5?$AAt?$AAo?$AAo?$AA?5?$AAs?$AAm?$AAa?$AAl?$AAl?$AA?$AA@ 0047ccec     LIBCMTD:strcpy_s.obj
 0002:00008d14       ??_C@_1CG@OFBJMIGJ@?$AA?$CI?$AA?$CI?$AA?$CI?$AA_?$AAS?$AAr?$AAc?$AA?$CJ?$AA?$CJ?$AA?$CJ?$AA?5?$AA?$CB?$AA?$DN?$AA?5?$AAN?$AAU?$AAL?$AAL?$AA?$AA@ 0047cd14     LIBCMTD:strcpy_s.obj
 0002:00008d3c       ??_C@_1BC@CFJEPFGF@?$AAs?$AAt?$AAr?$AAc?$AAp?$AAy?$AA_?$AAs?$AA?$AA@ 0047cd3c     LIBCMTD:strcpy_s.obj
 0002:00008d50       ??_C@_1GI@BGBNCIMA@?$AAf?$AA?3?$AA?2?$AAd?$AAd?$AA?2?$AAv?$AAc?$AAt?$AAo?$AAo?$AAl?$AAs?$AA?2?$AAc?$AAr?$AAt?$AA_?$AAb?$AAl?$AAd?$AA?2?$AAs?$AAe?$AAl?$AAf?$AA_?$AAx?$AA8?$AA6?$AA?2?$AAc@ 0047cd50     LIBCMTD:strcpy_s.obj
 0002:00008db8       ??_C@_1FC@NCPEPIBI@?$AA?$CI?$AA?$CI?$AA_?$AAD?$AAs?$AAt?$AA?$CJ?$AA?$CJ?$AA?5?$AA?$CB?$AA?$DN?$AA?5?$AAN?$AAU?$AAL?$AAL?$AA?5?$AA?$CG?$AA?$CG?$AA?5?$AA?$CI?$AA?$CI?$AA_?$AAS?$AAi?$AAz?$AAe?$AAI?$AAn?$AAB?$AAy?$AAt@ 0047cdb8     LIBCMTD:strcpy_s.obj
 0002:00008e78       ??_C@_03IIINPABG@tan?$AA@  0047ce78     LIBCMTD:_libm_error_.obj
 0002:00008e7c       ??_C@_03LALBNOCG@cos?$AA@  0047ce7c     LIBCMTD:_libm_error_.obj
 0002:00008e80       ??_C@_03BLEJJJBH@sin?$AA@  0047ce80     LIBCMTD:_libm_error_.obj
 0002:00008e84       ??_C@_04EHEDPDJG@modf?$AA@ 0047ce84     LIBCMTD:_libm_error_.obj
 0002:00008e8c       ??_C@_05PBJFFIGL@floor?$AA@ 0047ce8c     LIBCMTD:_libm_error_.obj
 0002:00008e94       ??_C@_04GFPJNGEK@ceil?$AA@ 0047ce94     LIBCMTD:_libm_error_.obj
 0002:00008e9c       ??_C@_04MLLJIGOK@atan?$AA@ 0047ce9c     LIBCMTD:_libm_error_.obj
 0002:00008ea4       ??_C@_05EOHGHCHD@exp10?$AA@ 0047cea4     LIBCMTD:_libm_error_.obj
 0002:00008eac       ??_C@_04PDIFKINK@acos?$AA@ 0047ceac     LIBCMTD:_libm_error_.obj
 0002:00008eb4       ??_C@_04FIHNOPOL@asin?$AA@ 0047ceb4     LIBCMTD:_libm_error_.obj
 0002:00008ebc       ??_C@_03JGHBODFD@pow?$AA@  0047cebc     LIBCMTD:_libm_error_.obj
 0002:00008ec0       ??_C@_03KHJOGHMM@exp?$AA@  0047cec0     LIBCMTD:_libm_error_.obj
 0002:00008ec4       ??_C@_05HGHHAHAP@log10?$AA@ 0047cec4     LIBCMTD:_libm_error_.obj
 0002:00008ecc       ??_C@_03MGHMBJCF@log?$AA@  0047cecc     LIBCMTD:_libm_error_.obj
 0002:00008ed0       ??_C@_1NK@LOFHIHFC@?$AAf?$AAM?$AAo?$AAd?$AAe?$AA?5?$AA?$DN?$AA?$DN?$AA?5?$AA_?$AAC?$AAR?$AAT?$AAD?$AAB?$AAG?$AA_?$AAR?$AAE?$AAP?$AAO?$AAR?$AAT?$AA_?$AAM?$AAO?$AAD?$AAE?$AA?5?$AA?$HM?$AA?$HM?$AA?5@ 0047ced0     LIBCMTD:dbgrptt.obj
 0002:00008fac       ??_C@_1CE@FIHIECNJ@?$AA_?$AAC?$AAr?$AAt?$AAS?$AAe?$AAt?$AAR?$AAe?$AAp?$AAo?$AAr?$AAt?$AAM?$AAo?$AAd?$AAe?$AA?$AA@ 0047cfac     LIBCMTD:dbgrptt.obj
 0002:00008fd0       ??_C@_1GC@FIGJJMEN@?$AAf?$AA?3?$AA?2?$AAd?$AAd?$AA?2?$AAv?$AAc?$AAt?$AAo?$AAo?$AAl?$AAs?$AA?2?$AAc?$AAr?$AAt?$AA_?$AAb?$AAl?$AAd?$AA?2?$AAs?$AAe?$AAl?$AAf?$AA_?$AAx?$AA8?$AA6?$AA?2?$AAc@ 0047cfd0     LIBCMTD:dbgrptt.obj
 0002:00009038       ??_C@_1FA@IFFFOLDJ@?$AAn?$AAR?$AAp?$AAt?$AAT?$AAy?$AAp?$AAe?$AA?5?$AA?$DO?$AA?$DN?$AA?5?$AA0?$AA?5?$AA?$CG?$AA?$CG?$AA?5?$AAn?$AAR?$AAp?$AAt?$AAT?$AAy?$AAp?$AAe?$AA?5?$AA?$DM?$AA?5?$AA_?$AAC?$AAR?$AAT@ 0047d038     LIBCMTD:dbgrptt.obj
 0002:00009088       ??_C@_1CE@IKKEDCME@?$AA_?$AAC?$AAr?$AAt?$AAS?$AAe?$AAt?$AAR?$AAe?$AAp?$AAo?$AAr?$AAt?$AAF?$AAi?$AAl?$AAe?$AA?$AA@ 0047d088     LIBCMTD:dbgrptt.obj
 0002:000090b0       ??_C@_1HO@PJOFIKFE@?$AA_?$AAC?$AAr?$AAt?$AAD?$AAb?$AAg?$AAR?$AAe?$AAp?$AAo?$AAr?$AAt?$AA?3?$AA?5?$AAS?$AAt?$AAr?$AAi?$AAn?$AAg?$AA?5?$AAt?$AAo?$AAo?$AA?5?$AAl?$AAo?$AAn?$AAg?$AA?5?$AAo@ 0047d0b0     LIBCMTD:dbgrptt.obj
 0002:00009130       ??_C@_1MC@IGEECMDB@?$AAw?$AAc?$AAs?$AAc?$AAp?$AAy?$AA_?$AAs?$AA?$CI?$AAs?$AAz?$AAO?$AAu?$AAt?$AAM?$AAe?$AAs?$AAs?$AAa?$AAg?$AAe?$AA2?$AA?0?$AA?5?$AA4?$AA0?$AA9?$AA6?$AA?0?$AA?5?$AAL?$AA?$CC@ 0047d130     LIBCMTD:dbgrptt.obj
 0002:000091f8       ??_C@_1IM@OOKIFKOH@?$AAe?$AA?5?$AA?$DN?$AA?5?$AAm?$AAb?$AAs?$AAt?$AAo?$AAw?$AAc?$AAs?$AA_?$AAs?$AA?$CI?$AA?$CG?$AAr?$AAe?$AAt?$AA?0?$AA?5?$AAs?$AAz?$AAO?$AAu?$AAt?$AAM?$AAe?$AAs?$AAs?$AAa?$AAg@ 0047d1f8     LIBCMTD:dbgrptt.obj
 0002:00009288       ??_C@_1FI@IBIOIHEG@?$AAs?$AAt?$AAr?$AAc?$AAp?$AAy?$AA_?$AAs?$AA?$CI?$AAs?$AAz?$AAO?$AAu?$AAt?$AAM?$AAe?$AAs?$AAs?$AAa?$AAg?$AAe?$AA?0?$AA?5?$AA4?$AA0?$AA9?$AA6?$AA?0?$AA?5?$AAs?$AAz?$AAL@ 0047d288     LIBCMTD:dbgrptt.obj
 0002:000092e0       ??_C@_1JG@CPKCIOEE@?$AAs?$AAt?$AAr?$AAc?$AAp?$AAy?$AA_?$AAs?$AA?$CI?$AAs?$AAz?$AAO?$AAu?$AAt?$AAM?$AAe?$AAs?$AAs?$AAa?$AAg?$AAe?$AA?0?$AA?5?$AA4?$AA0?$AA9?$AA6?$AA?0?$AA?5?$AA?$CC?$AA_?$AAC@ 0047d2e0     LIBCMTD:dbgrptt.obj
 0002:00009378       ??_C@_0M@IPILFDFN@?$CFs?$CI?$CFd?$CJ?5?3?5?$CFs?$AA@ 0047d378     LIBCMTD:dbgrptt.obj
 0002:00009388       ??_C@_1EI@LDHJEDO@?$AAs?$AAt?$AAr?$AAc?$AAa?$AAt?$AA_?$AAs?$AA?$CI?$AAs?$AAz?$AAL?$AAi?$AAn?$AAe?$AAM?$AAe?$AAs?$AAs?$AAa?$AAg?$AAe?$AA?0?$AA?5?$AA4?$AA0?$AA9?$AA6?$AA?0?$AA?5?$AA?$CC?$AA?2@ 0047d388     LIBCMTD:dbgrptt.obj
 0002:000093d0       ??_C@_01LIIJDEN@?$AN?$AA@  0047d3d0     LIBCMTD:dbgrptt.obj
 0002:000093d8       ??_C@_1EI@CACDLAFK@?$AAs?$AAt?$AAr?$AAc?$AAa?$AAt?$AA_?$AAs?$AA?$CI?$AAs?$AAz?$AAL?$AAi?$AAn?$AAe?$AAM?$AAe?$AAs?$AAs?$AAa?$AAg?$AAe?$AA?0?$AA?5?$AA4?$AA0?$AA9?$AA6?$AA?0?$AA?5?$AA?$CC?$AA?2@ 0047d3d8     LIBCMTD:dbgrptt.obj
 0002:00009420       ??_C@_1FK@NPGBPOFO@?$AAs?$AAt?$AAr?$AAc?$AAa?$AAt?$AA_?$AAs?$AA?$CI?$AAs?$AAz?$AAL?$AAi?$AAn?$AAe?$AAM?$AAe?$AAs?$AAs?$AAa?$AAg?$AAe?$AA?0?$AA?5?$AA4?$AA0?$AA9?$AA6?$AA?0?$AA?5?$AAs?$AAz@ 0047d420     LIBCMTD:dbgrptt.obj
 0002:00009480       ??_C@_1KK@GIGAEDMO@?$AAs?$AAt?$AAr?$AAc?$AAp?$AAy?$AA_?$AAs?$AA?$CI?$AAs?$AAz?$AAL?$AAi?$AAn?$AAe?$AAM?$AAe?$AAs?$AAs?$AAa?$AAg?$AAe?$AA?0?$AA?5?$AA4?$AA0?$AA9?$AA6?$AA?0?$AA?5?$AAs?$AAz@ 0047d480     LIBCMTD:dbgrptt.obj
 0002:0000952c       ??_C@_0BC@LAIDCHCH@Assertion?5failed?$CB?$AA@ 0047d52c     LIBCMTD:dbgrptt.obj
 0002:00009540       ??_C@_0BD@CAENFOHP@Assertion?5failed?3?5?$AA@ 0047d540     LIBCMTD:dbgrptt.obj
 0002:00009554       ??_C@_0CL@EACFGMNB@_CrtDbgReport?3?5String?5too?5long?5o@ 0047d554     LIBCMTD:dbgrptt.obj
 0002:00009580       ??_C@_1JI@GAALPGBM@?$AAs?$AAt?$AAr?$AAc?$AAp?$AAy?$AA_?$AAs?$AA?$CI?$AAs?$AAz?$AAU?$AAs?$AAe?$AAr?$AAM?$AAe?$AAs?$AAs?$AAa?$AAg?$AAe?$AA?0?$AA?5?$AA4?$AA0?$AA9?$AA6?$AA?0?$AA?5?$AA?$CC?$AA_@ 0047d580     LIBCMTD:dbgrptt.obj
 0002:00009618       ??_C@_07BHGABMGB@?0?5Line?5?$AA@ 0047d618     LIBCMTD:dbgrptt.obj
 0002:00009620       ??_C@_0P@DFJNDPOP@?$DMfile?5unknown?$DO?$AA@ 0047d620     LIBCMTD:dbgrptt.obj
 0002:00009630       ??_C@_0CG@BNGLOCEO@Second?5Chance?5Assertion?5Failed?3?5@ 0047d630     LIBCMTD:dbgrptt.obj
 0002:00009658       ??_C@_1FA@JPHJBHEM@?$AA_?$AAi?$AAt?$AAo?$AAa?$AA_?$AAs?$AA?$CI?$AAn?$AAL?$AAi?$AAn?$AAe?$AA?0?$AA?5?$AAs?$AAz?$AAL?$AAi?$AAn?$AAe?$AAM?$AAe?$AAs?$AAs?$AAa?$AAg?$AAe?$AA?0?$AA?5?$AA4?$AA0@ 0047d658     LIBCMTD:dbgrptt.obj
 0002:000096a8       ??_C@_1CA@KHJHLKA@?$AA_?$AAV?$AAC?$AAr?$AAt?$AAD?$AAb?$AAg?$AAR?$AAe?$AAp?$AAo?$AAr?$AAt?$AAA?$AA?$AA@ 0047d6a8     LIBCMTD:dbgrptt.obj
 0002:000096c8       ??_C@_1IE@CPGKIAGP@?$AAw?$AAc?$AAs?$AAt?$AAo?$AAm?$AAb?$AAs?$AA_?$AAs?$AA?$CI?$AA?$CG?$AAr?$AAe?$AAt?$AA?0?$AA?5?$AAs?$AAz?$AAa?$AAO?$AAu?$AAt?$AAM?$AAe?$AAs?$AAs?$AAa?$AAg?$AAe?$AA?0?$AA?5@ 0047d6c8     LIBCMTD:dbgrptt.obj
 0002:0000974c       ??_C@_0DP@GNPEPHJD@_CrtDbgReport?3?5String?5too?5long?5o@ 0047d74c     LIBCMTD:dbgrptt.obj
 0002:00009790       ??_C@_1MA@LBAMNNOB@?$AAs?$AAt?$AAr?$AAc?$AAp?$AAy?$AA_?$AAs?$AA?$CI?$AAs?$AAz?$AAO?$AAu?$AAt?$AAM?$AAe?$AAs?$AAs?$AAa?$AAg?$AAe?$AA2?$AA?0?$AA?5?$AA4?$AA0?$AA9?$AA6?$AA?0?$AA?5?$AA?$CC?$AA_@ 0047d790     LIBCMTD:dbgrptt.obj
 0002:00009850       ??_C@_1JC@EOAPFDLN@?$AAw?$AAc?$AAs?$AAt?$AAo?$AAm?$AAb?$AAs?$AA_?$AAs?$AA?$CI?$AA?$CI?$AA?$CI?$AAv?$AAo?$AAi?$AAd?$AA?5?$AA?$CK?$AA?$CJ?$AA0?$AA?$CJ?$AA?0?$AA?5?$AAs?$AAz?$AAO?$AAu?$AAt?$AAM?$AAe?$AAs@ 0047d850     LIBCMTD:dbgrptt.obj
 0002:000098e8       ??_C@_1FI@DBAIJPJE@?$AAw?$AAc?$AAs?$AAc?$AAp?$AAy?$AA_?$AAs?$AA?$CI?$AAs?$AAz?$AAO?$AAu?$AAt?$AAM?$AAe?$AAs?$AAs?$AAa?$AAg?$AAe?$AA?0?$AA?5?$AA4?$AA0?$AA9?$AA6?$AA?0?$AA?5?$AAs?$AAz?$AAL@ 0047d8e8     LIBCMTD:dbgrptt.obj
 0002:00009940       ??_C@_1BI@JIDBEPIG@?$AA?$CF?$AAs?$AA?$CI?$AA?$CF?$AAd?$AA?$CJ?$AA?5?$AA?3?$AA?5?$AA?$CF?$AAs?$AA?$AA@ 0047d940     LIBCMTD:dbgrptt.obj
 0002:00009958       ??_C@_1EK@PHCBEDKB@?$AAw?$AAc?$AAs?$AAc?$AAa?$AAt?$AA_?$AAs?$AA?$CI?$AAs?$AAz?$AAL?$AAi?$AAn?$AAe?$AAM?$AAe?$AAs?$AAs?$AAa?$AAg?$AAe?$AA?0?$AA?5?$AA4?$AA0?$AA9?$AA6?$AA?0?$AA?5?$AAL?$AA?$CC@ 0047d958     LIBCMTD:dbgrptt.obj
 0002:000099a4       ??_C@_13CMNBPIDO@?$AA?$AN?$AA?$AA@ 0047d9a4     LIBCMTD:dbgrptt.obj
 0002:000099a8       ??_C@_1EK@NMDFGHMF@?$AAw?$AAc?$AAs?$AAc?$AAa?$AAt?$AA_?$AAs?$AA?$CI?$AAs?$AAz?$AAL?$AAi?$AAn?$AAe?$AAM?$AAe?$AAs?$AAs?$AAa?$AAg?$AAe?$AA?0?$AA?5?$AA4?$AA0?$AA9?$AA6?$AA?0?$AA?5?$AAL?$AA?$CC@ 0047d9a8     LIBCMTD:dbgrptt.obj
 0002:000099f8       ??_C@_1FK@HPADHBBD@?$AAw?$AAc?$AAs?$AAc?$AAa?$AAt?$AA_?$AAs?$AA?$CI?$AAs?$AAz?$AAL?$AAi?$AAn?$AAe?$AAM?$AAe?$AAs?$AAs?$AAa?$AAg?$AAe?$AA?0?$AA?5?$AA4?$AA0?$AA9?$AA6?$AA?0?$AA?5?$AAs?$AAz@ 0047d9f8     LIBCMTD:dbgrptt.obj
 0002:00009a58       ??_C@_1KO@DGAHENCH@?$AAw?$AAc?$AAs?$AAc?$AAp?$AAy?$AA_?$AAs?$AA?$CI?$AAs?$AAz?$AAL?$AAi?$AAn?$AAe?$AAM?$AAe?$AAs?$AAs?$AAa?$AAg?$AAe?$AA?0?$AA?5?$AA4?$AA0?$AA9?$AA6?$AA?0?$AA?5?$AAs?$AAz@ 0047da58     LIBCMTD:dbgrptt.obj
 0002:00009b08       ??_C@_1CE@OJBNHDMO@?$AAA?$AAs?$AAs?$AAe?$AAr?$AAt?$AAi?$AAo?$AAn?$AA?5?$AAf?$AAa?$AAi?$AAl?$AAe?$AAd?$AA?$CB?$AA?$AA@ 0047db08     LIBCMTD:dbgrptt.obj
 0002:00009b2c       ??_C@_1CG@FFFGGODN@?$AAA?$AAs?$AAs?$AAe?$AAr?$AAt?$AAi?$AAo?$AAn?$AA?5?$AAf?$AAa?$AAi?$AAl?$AAe?$AAd?$AA?3?$AA?5?$AA?$AA@ 0047db2c     LIBCMTD:dbgrptt.obj
 0002:00009b58       ??_C@_1JK@KHFABAEO@?$AAw?$AAc?$AAs?$AAc?$AAp?$AAy?$AA_?$AAs?$AA?$CI?$AAs?$AAz?$AAU?$AAs?$AAe?$AAr?$AAM?$AAe?$AAs?$AAs?$AAa?$AAg?$AAe?$AA?0?$AA?5?$AA4?$AA0?$AA9?$AA6?$AA?0?$AA?5?$AAL?$AA?$CC@ 0047db58     LIBCMTD:dbgrptt.obj
 0002:00009bf4       ??_C@_13LBAGMAIH@?$AA?6?$AA?$AA@ 0047dbf4     LIBCMTD:dbgrptt.obj
 0002:00009bf8       ??_C@_1BA@ELMMDCFC@?$AA?0?$AA?5?$AAL?$AAi?$AAn?$AAe?$AA?5?$AA?$AA@ 0047dbf8     LIBCMTD:dbgrptt.obj
 0002:00009c08       ??_C@_1BO@OCHMLCAG@?$AA?$DM?$AAf?$AAi?$AAl?$AAe?$AA?5?$AAu?$AAn?$AAk?$AAn?$AAo?$AAw?$AAn?$AA?$DO?$AA?$AA@ 0047dc08     LIBCMTD:dbgrptt.obj
 0002:00009c28       ??_C@_1EM@MJFLEDMB@?$AAS?$AAe?$AAc?$AAo?$AAn?$AAd?$AA?5?$AAC?$AAh?$AAa?$AAn?$AAc?$AAe?$AA?5?$AAA?$AAs?$AAs?$AAe?$AAr?$AAt?$AAi?$AAo?$AAn?$AA?5?$AAF?$AAa?$AAi?$AAl?$AAe?$AAd?$AA?3?$AA?5@ 0047dc28     LIBCMTD:dbgrptt.obj
 0002:00009c78       ??_C@_1FA@CNLLOMHI@?$AA_?$AAi?$AAt?$AAo?$AAw?$AA_?$AAs?$AA?$CI?$AAn?$AAL?$AAi?$AAn?$AAe?$AA?0?$AA?5?$AAs?$AAz?$AAL?$AAi?$AAn?$AAe?$AAM?$AAe?$AAs?$AAs?$AAa?$AAg?$AAe?$AA?0?$AA?5?$AA4?$AA0@ 0047dc78     LIBCMTD:dbgrptt.obj
 0002:00009cc8       ??_C@_1CA@HPALHDOD@?$AA_?$AAV?$AAC?$AAr?$AAt?$AAD?$AAb?$AAg?$AAR?$AAe?$AAp?$AAo?$AAr?$AAt?$AAW?$AA?$AA@ 0047dcc8     LIBCMTD:dbgrptt.obj
 0002:00009ce8       ??_C@_0P@MIGLKIOC@CorExitProcess?$AA@ 0047dce8     LIBCMTD:crt0dat.obj
 0002:00009cf8       ??_C@_1BI@BGOHAHKC@?$AAm?$AAs?$AAc?$AAo?$AAr?$AAe?$AAe?$AA?4?$AAd?$AAl?$AAl?$AA?$AA@ 0047dcf8     LIBCMTD:crt0dat.obj
 0002:00009d10       ??_C@_1CC@CDIPMFPD@?$AA_?$AAw?$AAp?$AAg?$AAm?$AAp?$AAt?$AAr?$AA?5?$AA?$CB?$AA?$DN?$AA?5?$AAN?$AAU?$AAL?$AAL?$AA?$AA@ 0047dd10     LIBCMTD:crt0dat.obj
 0002:00009d34       ??_C@_1BK@PNLDCCDP@?$AA_?$AAg?$AAe?$AAt?$AA_?$AAw?$AAp?$AAg?$AAm?$AAp?$AAt?$AAr?$AA?$AA@ 0047dd34     LIBCMTD:crt0dat.obj
 0002:00009d50       ??_C@_1GC@DGCPEDNJ@?$AAf?$AA?3?$AA?2?$AAd?$AAd?$AA?2?$AAv?$AAc?$AAt?$AAo?$AAo?$AAl?$AAs?$AA?2?$AAc?$AAr?$AAt?$AA_?$AAb?$AAl?$AAd?$AA?2?$AAs?$AAe?$AAl?$AAf?$AA_?$AAx?$AA8?$AA6?$AA?2?$AAc@ 0047dd50     LIBCMTD:crt0dat.obj
 0002:00009db4       ??_C@_1CA@BBNAFCKO@?$AA_?$AAp?$AAg?$AAm?$AAp?$AAt?$AAr?$AA?5?$AA?$CB?$AA?$DN?$AA?5?$AAN?$AAU?$AAL?$AAL?$AA?$AA@ 0047ddb4     LIBCMTD:crt0dat.obj
 0002:00009dd4       ??_C@_1BI@COAAPHJK@?$AA_?$AAg?$AAe?$AAt?$AA_?$AAp?$AAg?$AAm?$AAp?$AAt?$AAr?$AA?$AA@ 0047ddd4     LIBCMTD:crt0dat.obj
 0002:00009dec       ??_C@_1O@EJLDHPPL@?$AAs?$AAi?$AAg?$AAn?$AAa?$AAl?$AA?$AA@ 0047ddec     LIBCMTD:winsig.obj
 0002:00009e00       ??_C@_1GA@DBECNFG@?$AAf?$AA?3?$AA?2?$AAd?$AAd?$AA?2?$AAv?$AAc?$AAt?$AAo?$AAo?$AAl?$AAs?$AA?2?$AAc?$AAr?$AAt?$AA_?$AAb?$AAl?$AAd?$AA?2?$AAs?$AAe?$AAl?$AAf?$AA_?$AAx?$AA8?$AA6?$AA?2?$AAc@ 0047de00     LIBCMTD:winsig.obj
 0002:00009e60       ??_C@_1DO@MLNEDKGB@?$AA?$CI?$AA?$CC?$AAI?$AAn?$AAv?$AAa?$AAl?$AAi?$AAd?$AA?5?$AAs?$AAi?$AAg?$AAn?$AAa?$AAl?$AA?5?$AAo?$AAr?$AA?5?$AAe?$AAr?$AAr?$AAo?$AAr?$AA?$CC?$AA?0?$AA?5?$AA0?$AA?$CJ?$AA?$AA@ 0047de60     LIBCMTD:winsig.obj
 0002:00009ea0       ??_C@_0DA@ELJOOIJF@f?3?2dd?2vctools?2crt_bld?2self_x86?2c@ 0047dea0     LIBCMTD:winsig.obj
 0002:00009ed0       ??_C@_1M@DMJEIKHL@?$AAr?$AAa?$AAi?$AAs?$AAe?$AA?$AA@ 0047ded0     LIBCMTD:winsig.obj
 0002:00009edc       ??_C@_0BI@DFKBFLJE@GetProcessWindowStation?$AA@ 0047dedc     LIBCMTD:crtmboxw.obj
 0002:00009ef4       ??_C@_0BK@DEKFELLI@GetUserObjectInformationW?$AA@ 0047def4     LIBCMTD:crtmboxw.obj
 0002:00009f10       ??_C@_0BD@HHGDFDBJ@GetLastActivePopup?$AA@ 0047df10     LIBCMTD:crtmboxw.obj
 0002:00009f24       ??_C@_0BA@HNOPNCHB@GetActiveWindow?$AA@ 0047df24     LIBCMTD:crtmboxw.obj
 0002:00009f34       ??_C@_0M@DLDCCGNP@MessageBoxW?$AA@ 0047df34     LIBCMTD:crtmboxw.obj
 0002:00009f40       ??_C@_1BG@GOEBHBDC@?$AAU?$AAS?$AAE?$AAR?$AA3?$AA2?$AA?4?$AAD?$AAL?$AAL?$AA?$AA@ 0047df40     LIBCMTD:crtmboxw.obj
 0002:00009f58       ??_C@_1BE@BMIJMLDD@?$AA_?$AAs?$AAw?$AAp?$AAr?$AAi?$AAn?$AAt?$AAf?$AA?$AA@ 0047df58     LIBCMTD:swprintf.obj
 0002:00009f70       ??_C@_1GE@DKGHLBLP@?$AAf?$AA?3?$AA?2?$AAd?$AAd?$AA?2?$AAv?$AAc?$AAt?$AAo?$AAo?$AAl?$AAs?$AA?2?$AAc?$AAr?$AAt?$AA_?$AAb?$AAl?$AAd?$AA?2?$AAs?$AAe?$AAl?$AAf?$AA_?$AAx?$AA8?$AA6?$AA?2?$AAc@ 0047df70     LIBCMTD:swprintf.obj
 0002:00009fd4       ??_C@_1BC@KIONAFPO@?$AAw?$AAc?$AAs?$AAc?$AAp?$AAy?$AA_?$AAs?$AA?$AA@ 0047dfd4     LIBCMTD:wcscpy_s.obj
 0002:00009fe8       ??_C@_1FC@PFMLEHKI@?$AA?$CI?$AA?$CI?$AA_?$AAD?$AAs?$AAt?$AA?$CJ?$AA?$CJ?$AA?5?$AA?$CB?$AA?$DN?$AA?5?$AAN?$AAU?$AAL?$AAL?$AA?5?$AA?$CG?$AA?$CG?$AA?5?$AA?$CI?$AA?$CI?$AA_?$AAS?$AAi?$AAz?$AAe?$AAI?$AAn?$AAW?$AAo?$AAr@ 0047dfe8     LIBCMTD:wcscpy_s.obj
 0002:0000a040       __XcptActTab               0047e040     LIBCMTD:winxfltr.obj
 0002:0000a0b8       ??_C@_1DE@MMOGFGHF@?$AAs?$AAt?$AAr?$AAc?$AAp?$AAy?$AA_?$AAs?$AA?$CI?$AA?$CK?$AAe?$AAn?$AAv?$AA?0?$AA?5?$AAc?$AAc?$AAh?$AAa?$AAr?$AAs?$AA?0?$AA?5?$AAp?$AA?$CJ?$AA?$AA@ 0047e0b8     LIBCMTD:stdenvp.obj
 0002:0000a0ec       ??_C@_1BC@GHMCNHHL@?$AA_?$AAs?$AAe?$AAt?$AAe?$AAn?$AAv?$AAp?$AA?$AA@ 0047e0ec     LIBCMTD:stdenvp.obj
 0002:0000a100       ??_C@_1GC@DGBFLDBN@?$AAf?$AA?3?$AA?2?$AAd?$AAd?$AA?2?$AAv?$AAc?$AAt?$AAo?$AAo?$AAl?$AAs?$AA?2?$AAc?$AAr?$AAt?$AA_?$AAb?$AAl?$AAd?$AA?2?$AAs?$AAe?$AAl?$AAf?$AA_?$AAx?$AA8?$AA6?$AA?2?$AAc@ 0047e100     LIBCMTD:stdenvp.obj
 0002:0000a164       ??_C@_0DB@BMEBJJKP@f?3?2dd?2vctools?2crt_bld?2self_x86?2c@ 0047e164     LIBCMTD:stdenvp.obj
 0002:0000a198       ??_C@_0DB@OEPBJOLC@f?3?2dd?2vctools?2crt_bld?2self_x86?2c@ 0047e198     LIBCMTD:stdargv.obj
 0002:0000a1cc       ??_C@_0CP@PPLBCJDN@f?3?2dd?2vctools?2crt_bld?2self_x86?2c@ 0047e1cc     LIBCMTD:a_env.obj
 0002:0000a1fc       ??_C@_0DA@NBLAKPEL@f?3?2dd?2vctools?2crt_bld?2self_x86?2c@ 0047e1fc     LIBCMTD:ioinit.obj
 0002:0000a230       ??_C@_1GE@JDDMFOID@?$AAf?$AA?3?$AA?2?$AAd?$AAd?$AA?2?$AAv?$AAc?$AAt?$AAo?$AAo?$AAl?$AAs?$AA?2?$AAc?$AAr?$AAt?$AA_?$AAb?$AAl?$AAd?$AA?2?$AAs?$AAe?$AAl?$AAf?$AA_?$AAx?$AA8?$AA6?$AA?2?$AAc@ 0047e230     LIBCMTD:heapinit.obj
 0002:0000a294       ??_C@_1BC@DENNNKIM@?$AA_?$AAc?$AAr?$AAt?$AAh?$AAe?$AAa?$AAp?$AA?$AA@ 0047e294     LIBCMTD:heapinit.obj
 0002:0000a2a8       ??_C@_0P@GGKDKEEG@runtime?5error?5?$AA@ 0047e2a8     LIBCMTD:crt0msg.obj
 0002:0000a2b8       ??_C@_02PCIJFNDE@?$AN?6?$AA@ 0047e2b8     LIBCMTD:crt0msg.obj
 0002:0000a2bc       ??_C@_0O@MJNIPGOH@TLOSS?5error?$AN?6?$AA@ 0047e2bc     LIBCMTD:crt0msg.obj
 0002:0000a2cc       ??_C@_0N@BONNPDHF@SING?5error?$AN?6?$AA@ 0047e2cc     LIBCMTD:crt0msg.obj
 0002:0000a2dc       ??_C@_0P@MBDAJNE@DOMAIN?5error?$AN?6?$AA@ 0047e2dc     LIBCMTD:crt0msg.obj
 0002:0000a2f0       ??_C@_0BFB@HKKMCDOL@R6034?$AN?6An?5application?5has?5made?5a@ 0047e2f0     LIBCMTD:crt0msg.obj
 0002:0000a448       ??_C@_0PH@EPAFIJ@R6033?$AN?6?9?5Attempt?5to?5use?5MSIL?5cod@ 0047e448     LIBCMTD:crt0msg.obj
 0002:0000a540       ??_C@_0DD@BKEEABMM@R6032?$AN?6?9?5not?5enough?5space?5for?5lo@ 0047e540     LIBCMTD:crt0msg.obj
 0002:0000a578       ??_C@_0GD@OFKILIED@R6031?$AN?6?9?5Attempt?5to?5initialize?5t@ 0047e578     LIBCMTD:crt0msg.obj
 0002:0000a5dc       ??_C@_0BP@LPMHJOKI@R6030?$AN?6?9?5CRT?5not?5initialized?$AN?6?$AA@ 0047e5dc     LIBCMTD:crt0msg.obj
 0002:0000a5fc       ??_C@_0CF@KJDAIALP@R6028?$AN?6?9?5unable?5to?5initialize?5he@ 0047e5fc     LIBCMTD:crt0msg.obj
 0002:0000a624       ??_C@_0DF@GAKBPDFP@R6027?$AN?6?9?5not?5enough?5space?5for?5lo@ 0047e624     LIBCMTD:crt0msg.obj
 0002:0000a65c       ??_C@_0DF@IBLNNAIG@R6026?$AN?6?9?5not?5enough?5space?5for?5st@ 0047e65c     LIBCMTD:crt0msg.obj
 0002:0000a694       ??_C@_0CG@IOHKGFNJ@R6025?$AN?6?9?5pure?5virtual?5function?5c@ 0047e694     LIBCMTD:crt0msg.obj
 0002:0000a6bc       ??_C@_0DF@JIJJFJDC@R6024?$AN?6?9?5not?5enough?5space?5for?5_o@ 0047e6bc     LIBCMTD:crt0msg.obj
 0002:0000a6f4       ??_C@_0CJ@EGEJHFME@R6019?$AN?6?9?5unable?5to?5open?5console?5@ 0047e6f4     LIBCMTD:crt0msg.obj
 0002:0000a720       ??_C@_0CB@GNHNIELH@R6018?$AN?6?9?5unexpected?5heap?5error?$AN?6@ 0047e720     LIBCMTD:crt0msg.obj
 0002:0000a744       ??_C@_0CN@FOLDKNG@R6017?$AN?6?9?5unexpected?5multithread?5@ 0047e744     LIBCMTD:crt0msg.obj
 0002:0000a774       ??_C@_0CM@FAHFJNHO@R6016?$AN?6?9?5not?5enough?5space?5for?5th@ 0047e774     LIBCMTD:crt0msg.obj
 0002:0000a7a0       ??_C@_0JG@LBKMGKLD@?$AN?6This?5application?5has?5requested@ 0047e7a0     LIBCMTD:crt0msg.obj
 0002:0000a838       ??_C@_0CM@FLCNIPKK@R6009?$AN?6?9?5not?5enough?5space?5for?5en@ 0047e838     LIBCMTD:crt0msg.obj
 0002:0000a864       ??_C@_0CK@KMMJOAPP@R6008?$AN?6?9?5not?5enough?5space?5for?5ar@ 0047e864     LIBCMTD:crt0msg.obj
 0002:0000a890       ??_C@_0CN@LEKKICBM@R6002?$AN?6?9?5floating?5point?5support?5@ 0047e890     LIBCMTD:crt0msg.obj
 0002:0000a8c0       ??_C@_0CF@GOGNBNAK@Microsoft?5Visual?5C?$CL?$CL?5Runtime?5Lib@ 0047e8c0     LIBCMTD:crt0msg.obj
 0002:0000a8e8       ??_C@_1KC@JBIKIPNF@?$AAs?$AAt?$AAr?$AAc?$AAa?$AAt?$AA_?$AAs?$AA?$CI?$AAo?$AAu?$AAt?$AAm?$AAs?$AAg?$AA?0?$AA?5?$AA?$CI?$AAs?$AAi?$AAz?$AAe?$AAo?$AAf?$AA?$CI?$AAo?$AAu?$AAt?$AAm?$AAs?$AAg?$AA?$CJ@ 0047e8e8     LIBCMTD:crt0msg.obj
 0002:0000a98c       ??_C@_02PHMGELLB@?6?6?$AA@ 0047e98c     LIBCMTD:crt0msg.obj
 0002:0000a990       ??_C@_1HO@POLIDBMF@?$AAs?$AAt?$AAr?$AAc?$AAa?$AAt?$AA_?$AAs?$AA?$CI?$AAo?$AAu?$AAt?$AAm?$AAs?$AAg?$AA?0?$AA?5?$AA?$CI?$AAs?$AAi?$AAz?$AAe?$AAo?$AAf?$AA?$CI?$AAo?$AAu?$AAt?$AAm?$AAs?$AAg?$AA?$CJ@ 0047e990     LIBCMTD:crt0msg.obj
 0002:0000aa10       ??_C@_03KHICJKCI@?4?4?4?$AA@ 0047ea10     LIBCMTD:crt0msg.obj
 0002:0000aa18       ??_C@_1HG@CJJGKFHK@?$AAs?$AAt?$AAr?$AAn?$AAc?$AAp?$AAy?$AA_?$AAs?$AA?$CI?$AAp?$AAc?$AAh?$AA?0?$AA?5?$AAp?$AAr?$AAo?$AAg?$AAn?$AAa?$AAm?$AAe?$AA_?$AAs?$AAi?$AAz?$AAe?$AA?5?$AA?9?$AA?5?$AA?$CI@ 0047ea18     LIBCMTD:crt0msg.obj
 0002:0000aa90       ??_C@_0BH@DNAGHKFM@?$DMprogram?5name?5unknown?$DO?$AA@ 0047ea90     LIBCMTD:crt0msg.obj
 0002:0000aaa8       ??_C@_1HI@FOOPEDMH@?$AAs?$AAt?$AAr?$AAc?$AAp?$AAy?$AA_?$AAs?$AA?$CI?$AAp?$AAr?$AAo?$AAg?$AAn?$AAa?$AAm?$AAe?$AA?0?$AA?5?$AAp?$AAr?$AAo?$AAg?$AAn?$AAa?$AAm?$AAe?$AA_?$AAs?$AAi?$AAz?$AAe@ 0047eaa8     LIBCMTD:crt0msg.obj
 0002:0000ab20       ??_C@_0BK@OFGJDLJJ@Runtime?5Error?$CB?6?6Program?3?5?$AA@ 0047eb20     LIBCMTD:crt0msg.obj
 0002:0000ab40       ??_C@_1KM@NKKPELHG@?$AAs?$AAt?$AAr?$AAc?$AAp?$AAy?$AA_?$AAs?$AA?$CI?$AAo?$AAu?$AAt?$AAm?$AAs?$AAg?$AA?0?$AA?5?$AA?$CI?$AAs?$AAi?$AAz?$AAe?$AAo?$AAf?$AA?$CI?$AAo?$AAu?$AAt?$AAm?$AAs?$AAg?$AA?$CJ@ 0047eb40     LIBCMTD:crt0msg.obj
 0002:0000abec       ??_C@_1BI@EAHMBMEC@?$AA_?$AAN?$AAM?$AAS?$AAG?$AA_?$AAW?$AAR?$AAI?$AAT?$AAE?$AA?$AA@ 0047ebec     LIBCMTD:crt0msg.obj
 0002:0000ac08       ??_C@_1GC@HKOJBOFF@?$AAf?$AA?3?$AA?2?$AAd?$AAd?$AA?2?$AAv?$AAc?$AAt?$AAo?$AAo?$AAl?$AAs?$AA?2?$AAc?$AAr?$AAt?$AA_?$AAb?$AAl?$AAd?$AA?2?$AAs?$AAe?$AAl?$AAf?$AA_?$AAx?$AA8?$AA6?$AA?2?$AAc@ 0047ec08     LIBCMTD:crt0msg.obj
 0002:0000ac6c       ??_C@_1BK@CDOALEA@?$AA_?$AAc?$AAo?$AAn?$AAt?$AAr?$AAo?$AAl?$AAf?$AAp?$AA_?$AAs?$AA?$AA@ 0047ec6c     LIBCMTD:_contrlfp_.obj
 0002:0000ac88       ??_C@_1HI@JIOCECAH@?$AAf?$AA?3?$AA?2?$AAd?$AAd?$AA?2?$AAv?$AAc?$AAt?$AAo?$AAo?$AAl?$AAs?$AA?2?$AAc?$AAr?$AAt?$AA_?$AAb?$AAl?$AAd?$AA?2?$AAs?$AAe?$AAl?$AAf?$AA_?$AAx?$AA8?$AA6?$AA?2?$AAc@ 0047ec88     LIBCMTD:_contrlfp_.obj
 0002:0000ad00       ??_C@_1DG@JNDMIEJL@?$AA?$CI?$AA?$CC?$AAI?$AAn?$AAv?$AAa?$AAl?$AAi?$AAd?$AA?5?$AAi?$AAn?$AAp?$AAu?$AAt?$AA?5?$AAv?$AAa?$AAl?$AAu?$AAe?$AA?$CC?$AA?0?$AA?5?$AA0?$AA?$CJ?$AA?$AA@ 0047ed00     LIBCMTD:_contrlfp_.obj
 0002:0000ad38       ??_C@_0DB@MHMEONEC@f?3?2dd?2vctools?2crt_bld?2self_x86?2c@ 0047ed38     LIBCMTD:mbctype.obj
 0002:0000ad6c       ??_C@_07LCBHPJJN@LC_TIME?$AA@ 0047ed6c     LIBCMTD:setlocal.obj
 0002:0000ad74       ??_C@_0L@DLHIECNL@LC_NUMERIC?$AA@ 0047ed74     LIBCMTD:setlocal.obj
 0002:0000ad80       ??_C@_0M@MIENIKLA@LC_MONETARY?$AA@ 0047ed80     LIBCMTD:setlocal.obj
 0002:0000ad8c       ??_C@_08EADHIDAD@LC_CTYPE?$AA@ 0047ed8c     LIBCMTD:setlocal.obj
 0002:0000ad98       ??_C@_0L@KFJHEKIK@LC_COLLATE?$AA@ 0047ed98     LIBCMTD:setlocal.obj
 0002:0000ada4       ??_C@_06NEFDFEKB@LC_ALL?$AA@ 0047eda4     LIBCMTD:setlocal.obj
 0002:0000adb0       ___lc_category             0047edb0     LIBCMTD:setlocal.obj
 0002:0000ae78       ??_C@_1GE@OLEIGPBJ@?$AAf?$AA?3?$AA?2?$AAd?$AAd?$AA?2?$AAv?$AAc?$AAt?$AAo?$AAo?$AAl?$AAs?$AA?2?$AAc?$AAr?$AAt?$AA_?$AAb?$AAl?$AAd?$AA?2?$AAs?$AAe?$AAl?$AAf?$AA_?$AAx?$AA8?$AA6?$AA?2?$AAc@ 0047ee78     LIBCMTD:setlocal.obj
 0002:0000aee0       ??_C@_1BKC@GGIENNAK@?$AA?$CI?$AA?$CI?$AAp?$AAt?$AAl?$AAo?$AAc?$AAi?$AA?9?$AA?$DO?$AAl?$AAc?$AA_?$AAc?$AAa?$AAt?$AAe?$AAg?$AAo?$AAr?$AAy?$AA?$FL?$AAc?$AAa?$AAt?$AAe?$AAg?$AAo?$AAr?$AAy?$AA?$FN?$AA?4@ 0047eee0     LIBCMTD:setlocal.obj
 0002:0000b084       ??_C@_1CI@FGIONOJM@?$AA_?$AAc?$AAo?$AAn?$AAf?$AAi?$AAg?$AAt?$AAh?$AAr?$AAe?$AAa?$AAd?$AAl?$AAo?$AAc?$AAa?$AAl?$AAe?$AA?$AA@ 0047f084     LIBCMTD:setlocal.obj
 0002:0000b0b0       ??_C@_1GA@LDEGDKD@?$AA?$CI?$AA?$CC?$AAI?$AAn?$AAv?$AAa?$AAl?$AAi?$AAd?$AA?5?$AAp?$AAa?$AAr?$AAa?$AAm?$AAe?$AAt?$AAe?$AAr?$AA?5?$AAf?$AAo?$AAr?$AA?5?$AA_?$AAc?$AAo?$AAn?$AAf?$AAi?$AAg?$AAt@ 0047f0b0     LIBCMTD:setlocal.obj
 0002:0000b110       ??_C@_0DC@JCPFNMID@f?3?2dd?2vctools?2crt_bld?2self_x86?2c@ 0047f110     LIBCMTD:setlocal.obj
 0002:0000b144       ??_C@_1BE@DBJGBOJC@?$AAs?$AAe?$AAt?$AAl?$AAo?$AAc?$AAa?$AAl?$AAe?$AA?$AA@ 0047f144     LIBCMTD:setlocal.obj
 0002:0000b158       ??_C@_1FG@OHLFEKMC@?$AAL?$AAC?$AA_?$AAM?$AAI?$AAN?$AA?5?$AA?$DM?$AA?$DN?$AA?5?$AA_?$AAc?$AAa?$AAt?$AAe?$AAg?$AAo?$AAr?$AAy?$AA?5?$AA?$CG?$AA?$CG?$AA?5?$AA_?$AAc?$AAa?$AAt?$AAe?$AAg?$AAo?$AAr?$AAy@ 0047f158     LIBCMTD:setlocal.obj
 0002:0000b1b0       ??_C@_1IA@PFIKKKFB@?$AAs?$AAt?$AAr?$AAn?$AAc?$AAp?$AAy?$AA_?$AAs?$AA?$CI?$AAl?$AAc?$AAt?$AAe?$AAm?$AAp?$AA?0?$AA?5?$AA?$CI?$AAs?$AAi?$AAz?$AAe?$AAo?$AAf?$AA?$CI?$AAl?$AAc?$AAt?$AAe?$AAm?$AAp@ 0047f1b0     LIBCMTD:setlocal.obj
 0002:0000b230       ??_C@_1CE@OFNHIOO@?$AA_?$AAs?$AAe?$AAt?$AAl?$AAo?$AAc?$AAa?$AAl?$AAe?$AA_?$AAn?$AAo?$AAl?$AAo?$AAc?$AAk?$AA?$AA@ 0047f230     LIBCMTD:setlocal.obj
 0002:0000b254       ??_C@_01ICJEACDI@?$DL?$AA@ 0047f254     LIBCMTD:setlocal.obj
 0002:0000b258       ??_C@_02BALPLPBG@?$DN?$DL?$AA@ 0047f258     LIBCMTD:setlocal.obj
 0002:0000b260       ??_C@_1GO@JALHLJEH@?$AAs?$AAt?$AAr?$AAc?$AAp?$AAy?$AA_?$AAs?$AA?$CI?$AAp?$AAc?$AAh?$AA?5?$AA?$CL?$AA?5?$AAs?$AAi?$AAz?$AAe?$AAo?$AAf?$AA?$CI?$AAi?$AAn?$AAt?$AA?$CJ?$AA?0?$AA?5?$AAc?$AAc?$AAh?$AA?5@ 0047f260     LIBCMTD:setlocal.obj
 0002:0000b2d0       ??_C@_1CG@IEFIICPK@?$AA_?$AAs?$AAe?$AAt?$AAl?$AAo?$AAc?$AAa?$AAl?$AAe?$AA_?$AAs?$AAe?$AAt?$AA_?$AAc?$AAa?$AAt?$AA?$AA@ 0047f2d0     LIBCMTD:setlocal.obj
 0002:0000b2f8       ??_C@_1DA@GDKKLCLM@?$AAs?$AAt?$AAr?$AAc?$AAa?$AAt?$AA_?$AAs?$AA?$CI?$AAp?$AAc?$AAh?$AA?0?$AA?5?$AAc?$AAc?$AAh?$AA?0?$AA?5?$AA?$CC?$AA?$DL?$AA?$CC?$AA?$CJ?$AA?$AA@ 0047f2f8     LIBCMTD:setlocal.obj
 0002:0000b328       ??_C@_1CG@NNFIJLDA@?$AA_?$AAs?$AAe?$AAt?$AAl?$AAo?$AAc?$AAa?$AAl?$AAe?$AA_?$AAg?$AAe?$AAt?$AA_?$AAa?$AAl?$AAl?$AA?$AA@ 0047f328     LIBCMTD:setlocal.obj
 0002:0000b350       ??_C@_01NEMOKFLO@?$DN?$AA@ 0047f350     LIBCMTD:setlocal.obj
 0002:0000b358       ??_C@_1FA@MHAOOIBO@?$AAs?$AAt?$AAr?$AAc?$AAp?$AAy?$AA_?$AAs?$AA?$CI?$AAo?$AAu?$AAt?$AAp?$AAu?$AAt?$AA?0?$AA?5?$AAs?$AAi?$AAz?$AAe?$AAI?$AAn?$AAC?$AAh?$AAa?$AAr?$AAs?$AA?0?$AA?5?$AAc?$AAa@ 0047f358     LIBCMTD:setlocal.obj
 0002:0000b3a8       ??_C@_1IA@ONNFOEDA@?$AAs?$AAt?$AAr?$AAn?$AAc?$AAp?$AAy?$AA_?$AAs?$AA?$CI?$AAc?$AAa?$AAc?$AAh?$AAe?$AAi?$AAn?$AA?0?$AA?5?$AAc?$AAa?$AAc?$AAh?$AAe?$AAi?$AAn?$AAS?$AAi?$AAz?$AAe?$AA?0?$AA?5@ 0047f3a8     LIBCMTD:setlocal.obj
 0002:0000b428       ??_C@_01GFHCPBMG@C?$AA@    0047f428     LIBCMTD:setlocal.obj
 0002:0000b430       ??_C@_1EG@MOMHKOD@?$AAs?$AAt?$AAr?$AAc?$AAp?$AAy?$AA_?$AAs?$AA?$CI?$AAo?$AAu?$AAt?$AAp?$AAu?$AAt?$AA?0?$AA?5?$AAs?$AAi?$AAz?$AAe?$AAI?$AAn?$AAC?$AAh?$AAa?$AAr?$AAs?$AA?0?$AA?5?$AA?$CC?$AAC@ 0047f430     LIBCMTD:setlocal.obj
 0002:0000b478       ??_C@_1BM@OIIBLEFG@?$AA_?$AAe?$AAx?$AAp?$AAa?$AAn?$AAd?$AAl?$AAo?$AAc?$AAa?$AAl?$AAe?$AA?$AA@ 0047f478     LIBCMTD:setlocal.obj
 0002:0000b498       ??_C@_1BGM@IJDLABMC@?$AAs?$AAt?$AAr?$AAc?$AAa?$AAt?$AA_?$AAs?$AA?$CI?$AAo?$AAu?$AAt?$AAs?$AAt?$AAr?$AA?0?$AA?5?$AAs?$AAi?$AAz?$AAe?$AAI?$AAn?$AAB?$AAy?$AAt?$AAe?$AAs?$AA?0?$AA?5?$AA?$CI?$AA?5@ 0047f498     LIBCMTD:setlocal.obj
 0002:0000b604       ??_C@_1BC@PIABMDIP@?$AA_?$AAs?$AAt?$AAr?$AAc?$AAa?$AAt?$AAs?$AA?$AA@ 0047f604     LIBCMTD:setlocal.obj
 0002:0000b618       ??_C@_1MM@NOPMGFHF@?$AAs?$AAt?$AAr?$AAn?$AAc?$AAp?$AAy?$AA_?$AAs?$AA?$CI?$AAn?$AAa?$AAm?$AAe?$AAs?$AA?9?$AA?$DO?$AAs?$AAz?$AAC?$AAo?$AAd?$AAe?$AAP?$AAa?$AAg?$AAe?$AA?0?$AA?5?$AA?$CI?$AAs?$AAi@ 0047f618     LIBCMTD:setlocal.obj
 0002:0000b6e8       ??_C@_1MG@PHNILIAG@?$AAs?$AAt?$AAr?$AAn?$AAc?$AAp?$AAy?$AA_?$AAs?$AA?$CI?$AAn?$AAa?$AAm?$AAe?$AAs?$AA?9?$AA?$DO?$AAs?$AAz?$AAC?$AAo?$AAu?$AAn?$AAt?$AAr?$AAy?$AA?0?$AA?5?$AA?$CI?$AAs?$AAi?$AAz@ 0047f6e8     LIBCMTD:setlocal.obj
 0002:0000b7b0       ??_C@_1MM@BFEECMAF@?$AAs?$AAt?$AAr?$AAn?$AAc?$AAp?$AAy?$AA_?$AAs?$AA?$CI?$AAn?$AAa?$AAm?$AAe?$AAs?$AA?9?$AA?$DO?$AAs?$AAz?$AAL?$AAa?$AAn?$AAg?$AAu?$AAa?$AAg?$AAe?$AA?0?$AA?5?$AA?$CI?$AAs?$AAi@ 0047f7b0     LIBCMTD:setlocal.obj
 0002:0000b87c       ??_C@_03EGDHDPFD@_?4?0?$AA@ 0047f87c     LIBCMTD:setlocal.obj
 0002:0000b880       ??_C@_1NG@FMOPGKGG@?$AAs?$AAt?$AAr?$AAn?$AAc?$AAp?$AAy?$AA_?$AAs?$AA?$CI?$AAn?$AAa?$AAm?$AAe?$AAs?$AA?9?$AA?$DO?$AAs?$AAz?$AAC?$AAo?$AAd?$AAe?$AAP?$AAa?$AAg?$AAe?$AA?0?$AA?5?$AA?$CI?$AAs?$AAi@ 0047f880     LIBCMTD:setlocal.obj
 0002:0000b958       ??_C@_1BK@CBMMLAGJ@?$AA_?$AA_?$AAl?$AAc?$AA_?$AAs?$AAt?$AAr?$AAt?$AAo?$AAl?$AAc?$AA?$AA@ 0047f958     LIBCMTD:setlocal.obj
 0002:0000b974       ??_C@_01LFCBOECM@?4?$AA@   0047f974     LIBCMTD:setlocal.obj
 0002:0000b978       ??_C@_01IDAFKMJL@_?$AA@    0047f978     LIBCMTD:setlocal.obj
 0002:0000b980       ??_C@_1HC@IBDBLKCB@?$AAs?$AAt?$AAr?$AAc?$AAp?$AAy?$AA_?$AAs?$AA?$CI?$AAl?$AAo?$AAc?$AAa?$AAl?$AAe?$AA?0?$AA?5?$AAs?$AAi?$AAz?$AAe?$AAI?$AAn?$AAB?$AAy?$AAt?$AAe?$AAs?$AA?0?$AA?5?$AA?$CI?$AAc@ 0047f980     LIBCMTD:setlocal.obj
 0002:0000b9f4       ??_C@_1BK@FGDJDEPG@?$AA_?$AA_?$AAl?$AAc?$AA_?$AAl?$AAc?$AAt?$AAo?$AAs?$AAt?$AAr?$AA?$AA@ 0047f9f4     LIBCMTD:setlocal.obj
 0002:0000ba10       ??_C@_1BK@CLIEHFDF@?$AAp?$AAf?$AAl?$AAt?$AA?5?$AA?$CB?$AA?$DN?$AA?5?$AAN?$AAU?$AAL?$AAL?$AA?$AA@ 0047fa10     LIBCMTD:_fptostr.obj
 0002:0000ba30       ??_C@_1GM@CEDLGDDI@?$AAs?$AAi?$AAz?$AAe?$AAI?$AAn?$AAB?$AAy?$AAt?$AAe?$AAs?$AA?5?$AA?$DO?$AA?5?$AA?$CI?$AAs?$AAi?$AAz?$AAe?$AA_?$AAt?$AA?$CJ?$AA?$CI?$AA?$CI?$AAd?$AAi?$AAg?$AAi?$AAt?$AAs?$AA?5?$AA?$DO@ 0047fa30     LIBCMTD:_fptostr.obj
 0002:0000ba9c       ??_C@_1BC@OPALLEB@?$AA_?$AAf?$AAp?$AAt?$AAo?$AAs?$AAt?$AAr?$AA?$AA@ 0047fa9c     LIBCMTD:_fptostr.obj
 0002:0000bab0       ??_C@_1GE@BDKOPHIO@?$AAf?$AA?3?$AA?2?$AAd?$AAd?$AA?2?$AAv?$AAc?$AAt?$AAo?$AAo?$AAl?$AAs?$AA?2?$AAc?$AAr?$AAt?$AA_?$AAb?$AAl?$AAd?$AA?2?$AAs?$AAe?$AAl?$AAf?$AA_?$AAx?$AA8?$AA6?$AA?2?$AAc@ 0047fab0     LIBCMTD:_fptostr.obj
 0002:0000bb18       ??_C@_1FK@KODCOBKF@?$AAs?$AAt?$AAr?$AAc?$AAp?$AAy?$AA_?$AAs?$AA?$CI?$AAr?$AAe?$AAs?$AAu?$AAl?$AAt?$AAs?$AAt?$AAr?$AA?0?$AA?5?$AAr?$AAe?$AAs?$AAu?$AAl?$AAt?$AAs?$AAi?$AAz?$AAe?$AA?0?$AA?5@ 0047fb18     LIBCMTD:_cfout_.obj
 0002:0000bb74       ??_C@_1BC@BPMMEHLK@?$AA_?$AAf?$AAl?$AAt?$AAo?$AAu?$AAt?$AA2?$AA?$AA@ 0047fb74     LIBCMTD:_cfout_.obj
 0002:0000bb88       ??_C@_1HC@PKFDNKN@?$AAf?$AA?3?$AA?2?$AAd?$AAd?$AA?2?$AAv?$AAc?$AAt?$AAo?$AAo?$AAl?$AAs?$AA?2?$AAc?$AAr?$AAt?$AA_?$AAb?$AAl?$AAd?$AA?2?$AAs?$AAe?$AAl?$AAf?$AA_?$AAx?$AA8?$AA6?$AA?2?$AAc@ 0047fb88     LIBCMTD:_cfout_.obj
 0002:0000bbfc       ??_C@_1CG@EBJECAJM@?$AA_?$AAs?$AAe?$AAt?$AA_?$AAo?$AAu?$AAt?$AAp?$AAu?$AAt?$AA_?$AAf?$AAo?$AAr?$AAm?$AAa?$AAt?$AA?$AA@ 0047fbfc     LIBCMTD:outputformat.obj
 0002:0000bc28       ??_C@_1GM@NFGGJJCM@?$AAf?$AA?3?$AA?2?$AAd?$AAd?$AA?2?$AAv?$AAc?$AAt?$AAo?$AAo?$AAl?$AAs?$AA?2?$AAc?$AAr?$AAt?$AA_?$AAb?$AAl?$AAd?$AA?2?$AAs?$AAe?$AAl?$AAf?$AA_?$AAx?$AA8?$AA6?$AA?2?$AAc@ 0047fc28     LIBCMTD:outputformat.obj
 0002:0000bc98       ??_C@_1EM@EGEEBJLG@?$AA?$CI?$AAo?$AAp?$AAt?$AAi?$AAo?$AAn?$AAs?$AA?5?$AA?$CG?$AA?5?$AA?$HO?$AA_?$AAT?$AAW?$AAO?$AA_?$AAD?$AAI?$AAG?$AAI?$AAT?$AA_?$AAE?$AAX?$AAP?$AAO?$AAN?$AAE?$AAN?$AAT?$AA?$CJ@ 0047fc98     LIBCMTD:outputformat.obj
 0002:0000bce4       ??_C@_0M@EKFFODEC@MSPDB80?4DLL?$AA@ 0047fce4     LIBCMTD:_pdblkup_.obj
 0002:0000bcf0       ??_C@_01KDCPPGHE@r?$AA@    0047fcf0     LIBCMTD:_pdblkup_.obj
 0002:0000bcf4       ??_C@_0BB@KCIACLNC@PDBOpenValidate5?$AA@ 0047fcf4     LIBCMTD:_pdblkup_.obj
 0002:0000bd08       ??_C@_0BF@BMIHBHCA@EnvironmentDirectory?$AA@ 0047fd08     LIBCMTD:_pdblkup_.obj
 0002:0000bd20       ??_C@_0CN@JNNIHDGH@SOFTWARE?2Microsoft?2VisualStudio?2@ 0047fd20     LIBCMTD:_pdblkup_.obj
 0002:0000bd50       ??_C@_0M@HLOHPNFA@RegCloseKey?$AA@ 0047fd50     LIBCMTD:_pdblkup_.obj
 0002:0000bd5c       ??_C@_0BB@HHEIPGME@RegQueryValueExA?$AA@ 0047fd5c     LIBCMTD:_pdblkup_.obj
 0002:0000bd70       ??_C@_0O@DCOGKJGG@RegOpenKeyExA?$AA@ 0047fd70     LIBCMTD:_pdblkup_.obj
 0002:0000bd80       ??_C@_0N@JJPEKNFO@ADVAPI32?4DLL?$AA@ 0047fd80     LIBCMTD:_pdblkup_.obj
 0002:0000bd90       ??_C@_0BB@NAGLCMLI@Assertion?5Failed?$AA@ 0047fd90     LIBCMTD:dbgrpt.obj
 0002:0000bda4       ??_C@_05NAOIJFC@Error?$AA@ 0047fda4     LIBCMTD:dbgrpt.obj
 0002:0000bdac       ??_C@_07KGMMFLDN@Warning?$AA@ 0047fdac     LIBCMTD:dbgrpt.obj
 0002:0000bdc0       ??_C@_1CG@GNMJDMIO@?$AA_?$AAC?$AAr?$AAt?$AAS?$AAe?$AAt?$AAR?$AAe?$AAp?$AAo?$AAr?$AAt?$AAH?$AAo?$AAo?$AAk?$AA2?$AA?$AA@ 0047fdc0     LIBCMTD:dbgrpt.obj
 0002:0000bde8       ??_C@_0CD@EBCGLDDL@Microsoft?5Visual?5C?$CL?$CL?5Debug?5Libra@ 0047fde8     LIBCMTD:dbgrpt.obj
 0002:0000be10       ??_C@_0FF@CCONDJCB@Debug?5?$CFs?$CB?6?6Program?3?5?$CFs?$CFs?$CFs?$CFs?$CFs?$CFs@ 0047fe10     LIBCMTD:dbgrpt.obj
 0002:0000be68       ??_C@_09OFBFHMBK@?6Module?3?5?$AA@ 0047fe68     LIBCMTD:dbgrpt.obj
 0002:0000be74       ??_C@_07OPHPPLBG@?6File?3?5?$AA@ 0047fe74     LIBCMTD:dbgrpt.obj
 0002:0000be7c       ??_C@_07DBMPPHDI@?6Line?3?5?$AA@ 0047fe7c     LIBCMTD:dbgrpt.obj
 0002:0000be84       ??_C@_0N@MEECIJGN@Expression?3?5?$AA@ 0047fe84     LIBCMTD:dbgrpt.obj
 0002:0000be98       ??_C@_0HD@GNBNFCCL@?6?6For?5information?5on?5how?5your?5pr@ 0047fe98     LIBCMTD:dbgrpt.obj
 0002:0000bf10       ??_C@_1GG@DLDHOIGE@?$AAs?$AAt?$AAr?$AAc?$AAp?$AAy?$AA_?$AAs?$AA?$CI?$AAs?$AAz?$AAE?$AAx?$AAe?$AAN?$AAa?$AAm?$AAe?$AA?0?$AA?5?$AA2?$AA6?$AA0?$AA?0?$AA?5?$AA?$CC?$AA?$DM?$AAp?$AAr?$AAo?$AAg?$AAr@ 0047ff10     LIBCMTD:dbgrpt.obj
 0002:0000bf78       ??_C@_1CI@IDOKFLAJ@?$AA_?$AA_?$AAc?$AAr?$AAt?$AAM?$AAe?$AAs?$AAs?$AAa?$AAg?$AAe?$AAW?$AAi?$AAn?$AAd?$AAo?$AAw?$AAA?$AA?$AA@ 0047ff78     LIBCMTD:dbgrpt.obj
 0002:0000bfa0       ??_C@_1BK@JMCGJOCC@?$AA_?$AAe?$AAx?$AAp?$AAa?$AAn?$AAd?$AA_?$AAb?$AAa?$AAs?$AAe?$AA?$AA@ 0047ffa0     LIBCMTD:expand.obj
 0002:0000bfc0       ??_C@_1GA@EBHFLDNH@?$AAf?$AA?3?$AA?2?$AAd?$AAd?$AA?2?$AAv?$AAc?$AAt?$AAo?$AAo?$AAl?$AAs?$AA?2?$AAc?$AAr?$AAt?$AA_?$AAb?$AAl?$AAd?$AA?2?$AAs?$AAe?$AAl?$AAf?$AA_?$AAx?$AA8?$AA6?$AA?2?$AAc@ 0047ffc0     LIBCMTD:expand.obj
 0002:0000c020       ??_C@_1BO@KFIJIAEA@?$AAp?$AAB?$AAl?$AAo?$AAc?$AAk?$AA?5?$AA?$CB?$AA?$DN?$AA?5?$AAN?$AAU?$AAL?$AAL?$AA?$AA@ 00480020     LIBCMTD:expand.obj
 0002:0000c040       ??_C@_0BF@PEEJCKGM@HeapQueryInformation?$AA@ 00480040     LIBCMTD:expand.obj
 0002:0000c058       ??_C@_1BK@MGMFAEKH@?$AAk?$AAe?$AAr?$AAn?$AAe?$AAl?$AA3?$AA2?$AA?4?$AAd?$AAl?$AAl?$AA?$AA@ 00480058     LIBCMTD:expand.obj
 0002:0000c078       ??_C@_1GA@CMCJKKIB@?$AAf?$AA?3?$AA?2?$AAd?$AAd?$AA?2?$AAv?$AAc?$AAt?$AAo?$AAo?$AAl?$AAs?$AA?2?$AAc?$AAr?$AAt?$AA_?$AAb?$AAl?$AAd?$AA?2?$AAs?$AAe?$AAl?$AAf?$AA_?$AAx?$AA8?$AA6?$AA?2?$AAc@ 00480078     LIBCMTD:sbheap.obj
 0002:0000c0d8       ??_C@_1IC@MOGBEBCE@?$AA?$CI?$AAt?$AAh?$AAr?$AAe?$AAs?$AAh?$AAo?$AAl?$AAd?$AA?5?$AA?$DM?$AA?$DN?$AA?5?$AAM?$AAA?$AAX?$AA_?$AAA?$AAL?$AAL?$AAO?$AAC?$AA_?$AAD?$AAA?$AAT?$AAA?$AA_?$AAS?$AAI?$AAZ@ 004800d8     LIBCMTD:sbheap.obj
 0002:0000c15c       ??_C@_1CG@BBFCGKBK@?$AA_?$AAs?$AAe?$AAt?$AA_?$AAs?$AAb?$AAh?$AA_?$AAt?$AAh?$AAr?$AAe?$AAs?$AAh?$AAo?$AAl?$AAd?$AA?$AA@ 0048015c     LIBCMTD:sbheap.obj
 0002:0000c188       ??_C@_1EC@DACAONFE@?$AAt?$AAh?$AAr?$AAe?$AAs?$AAh?$AAo?$AAl?$AAd?$AA?5?$AA?$DM?$AA?$DN?$AA?5?$AAM?$AAA?$AAX?$AA_?$AAA?$AAL?$AAL?$AAO?$AAC?$AA_?$AAD?$AAA?$AAT?$AAA?$AA_?$AAS?$AAI?$AAZ?$AAE@ 00480188     LIBCMTD:sbheap.obj
 0002:0000c1cc       ??_C@_1BM@GFNECEDD@?$AA_?$AAs?$AAe?$AAt?$AA_?$AAa?$AAm?$AAb?$AAl?$AAk?$AAs?$AAi?$AAz?$AA?$AA@ 004801cc     LIBCMTD:sbheap.obj
 0002:0000c1e8       ??_C@_1DK@BKLENMLC@?$AA0?$AA?5?$AA?$DM?$AA?5?$AAs?$AAi?$AAz?$AAe?$AA?5?$AA?$CG?$AA?$CG?$AA?5?$AAs?$AAi?$AAz?$AAe?$AA?5?$AA?$DM?$AA?$DN?$AA?5?$AAU?$AAI?$AAN?$AAT?$AA_?$AAM?$AAA?$AAX?$AA?$AA@ 004801e8     LIBCMTD:sbheap.obj
 0002:0000c224       ??_C@_1BM@OFBCOJJF@?$AA_?$AAg?$AAe?$AAt?$AA_?$AAa?$AAm?$AAb?$AAl?$AAk?$AAs?$AAi?$AAz?$AA?$AA@ 00480224     LIBCMTD:sbheap.obj
 0002:0000c240       ??_C@_1BM@IELHFPPM@?$AAp?$AAS?$AAi?$AAz?$AAe?$AA?5?$AA?$CB?$AA?$DN?$AA?5?$AAN?$AAU?$AAL?$AAL?$AA?$AA@ 00480240     LIBCMTD:sbheap.obj
 0002:0000c260       ??_C@_1GC@CHGJNMHG@?$AAf?$AA?3?$AA?2?$AAd?$AAd?$AA?2?$AAv?$AAc?$AAt?$AAo?$AAo?$AAl?$AAs?$AA?2?$AAc?$AAr?$AAt?$AA_?$AAb?$AAl?$AAd?$AA?2?$AAs?$AAe?$AAl?$AAf?$AA_?$AAx?$AA8?$AA6?$AA?2?$AAc@ 00480260     LIBCMTD:isctype.obj
 0002:0000c2c4       ??_C@_1DC@BPLPALML@?$AA?$CI?$AAu?$AAn?$AAs?$AAi?$AAg?$AAn?$AAe?$AAd?$AA?$CJ?$AA?$CI?$AAc?$AA?5?$AA?$CL?$AA?5?$AA1?$AA?$CJ?$AA?5?$AA?$DM?$AA?$DN?$AA?5?$AA2?$AA5?$AA6?$AA?$AA@ 004802c4     LIBCMTD:isctype.obj
 0002:0000c2f8       ??_C@_1JE@ECKHFIFP@?$AA?$CI?$AA?$CC?$AAI?$AAn?$AAv?$AAa?$AAl?$AAi?$AAd?$AA?5?$AAf?$AAi?$AAl?$AAe?$AA?5?$AAd?$AAe?$AAs?$AAc?$AAr?$AAi?$AAp?$AAt?$AAo?$AAr?$AA?4?$AA?5?$AAF?$AAi?$AAl?$AAe?$AA?5@ 004802f8     LIBCMTD:lseeki64.obj
 0002:0000c38c       ??_C@_1CM@OKGMMMDH@?$AA?$CI?$AA_?$AAo?$AAs?$AAf?$AAi?$AAl?$AAe?$AA?$CI?$AAf?$AAh?$AA?$CJ?$AA?5?$AA?$CG?$AA?5?$AAF?$AAO?$AAP?$AAE?$AAN?$AA?$CJ?$AA?$AA@ 0048038c     LIBCMTD:lseeki64.obj
 0002:0000c3b8       ??_C@_1BE@KHFBJMNM@?$AA_?$AAl?$AAs?$AAe?$AAe?$AAk?$AAi?$AA6?$AA4?$AA?$AA@ 004803b8     LIBCMTD:lseeki64.obj
 0002:0000c3d0       ??_C@_1GE@MINKPNPH@?$AAf?$AA?3?$AA?2?$AAd?$AAd?$AA?2?$AAv?$AAc?$AAt?$AAo?$AAo?$AAl?$AAs?$AA?2?$AAc?$AAr?$AAt?$AA_?$AAb?$AAl?$AAd?$AA?2?$AAs?$AAe?$AAl?$AAf?$AA_?$AAx?$AA8?$AA6?$AA?2?$AAc@ 004803d0     LIBCMTD:lseeki64.obj
 0002:0000c438       ??_C@_1FO@LPCLHKGE@?$AA?$CI?$AAf?$AAh?$AA?5?$AA?$DO?$AA?$DN?$AA?5?$AA0?$AA?5?$AA?$CG?$AA?$CG?$AA?5?$AA?$CI?$AAu?$AAn?$AAs?$AAi?$AAg?$AAn?$AAe?$AAd?$AA?$CJ?$AAf?$AAh?$AA?5?$AA?$DM?$AA?5?$AA?$CI?$AAu?$AAn?$AAs?$AAi@ 00480438     LIBCMTD:lseeki64.obj
 0002:0000c498       ??_C@_1O@KOFKDHPL@?$AA_?$AAw?$AAr?$AAi?$AAt?$AAe?$AA?$AA@ 00480498     LIBCMTD:write.obj
 0002:0000c4a8       ??_C@_1FO@EPLDPDDL@?$AAf?$AA?3?$AA?2?$AAd?$AAd?$AA?2?$AAv?$AAc?$AAt?$AAo?$AAo?$AAl?$AAs?$AA?2?$AAc?$AAr?$AAt?$AA_?$AAb?$AAl?$AAd?$AA?2?$AAs?$AAe?$AAl?$AAf?$AA_?$AAx?$AA8?$AA6?$AA?2?$AAc@ 004804a8     LIBCMTD:write.obj
 0002:0000c508       ??_C@_1DI@CNMHHHLG@?$AAi?$AAs?$AAl?$AAe?$AAa?$AAd?$AAb?$AAy?$AAt?$AAe?$AA?$CI?$AA_?$AAd?$AAb?$AAc?$AAs?$AAB?$AAu?$AAf?$AAf?$AAe?$AAr?$AA?$CI?$AAf?$AAh?$AA?$CJ?$AA?$CJ?$AA?$AA@ 00480508     LIBCMTD:write.obj
 0002:0000c540       ??_C@_1CC@EEOLPHGO@?$AA?$CI?$AA?$CI?$AAc?$AAn?$AAt?$AA?5?$AA?$CG?$AA?5?$AA1?$AA?$CJ?$AA?5?$AA?$DN?$AA?$DN?$AA?5?$AA0?$AA?$CJ?$AA?$AA@ 00480540     LIBCMTD:write.obj
 0002:0000c564       ??_C@_1BM@NCANHCIP@?$AA_?$AAw?$AAr?$AAi?$AAt?$AAe?$AA_?$AAn?$AAo?$AAl?$AAo?$AAc?$AAk?$AA?$AA@ 00480564     LIBCMTD:write.obj
 0002:0000c580       ??_C@_1BM@KFJLMBPG@?$AA?$CI?$AAb?$AAu?$AAf?$AA?5?$AA?$CB?$AA?$DN?$AA?5?$AAN?$AAU?$AAL?$AAL?$AA?$CJ?$AA?$AA@ 00480580     LIBCMTD:write.obj
 0002:0000c59c       ??_C@_0DB@JEHOCBEJ@f?3?2dd?2vctools?2crt_bld?2self_x86?2c@ 0048059c     LIBCMTD:_getbuf.obj
 0002:0000c5d0       ??_C@_1GC@DKMGNNCC@?$AAf?$AA?3?$AA?2?$AAd?$AAd?$AA?2?$AAv?$AAc?$AAt?$AAo?$AAo?$AAl?$AAs?$AA?2?$AAc?$AAr?$AAt?$AA_?$AAb?$AAl?$AAd?$AA?2?$AAs?$AAe?$AAl?$AAf?$AA_?$AAx?$AA8?$AA6?$AA?2?$AAc@ 004805d0     LIBCMTD:_getbuf.obj
 0002:0000c634       ??_C@_1BA@LEBDGIHM@?$AA_?$AAi?$AAs?$AAa?$AAt?$AAt?$AAy?$AA?$AA@ 00480634     LIBCMTD:isatty.obj
 0002:0000c648       ??_C@_1GA@LPGDJDEN@?$AAf?$AA?3?$AA?2?$AAd?$AAd?$AA?2?$AAv?$AAc?$AAt?$AAo?$AAo?$AAl?$AAs?$AA?2?$AAc?$AAr?$AAt?$AA_?$AAb?$AAl?$AAd?$AA?2?$AAs?$AAe?$AAl?$AAf?$AA_?$AAx?$AA8?$AA6?$AA?2?$AAc@ 00480648     LIBCMTD:isatty.obj
 0002:0000c6a8       ??_C@_0CP@BNKDODJJ@f?3?2dd?2vctools?2crt_bld?2self_x86?2c@ 004806a8     LIBCMTD:_file.obj
 0002:0000c6d8       ??_C@_1BA@JGHIEKKM@?$AA_?$AAf?$AAi?$AAl?$AAe?$AAn?$AAo?$AA?$AA@ 004806d8     LIBCMTD:fileno.obj
 0002:0000c6e8       ??_C@_1GA@PBJHELNC@?$AAf?$AA?3?$AA?2?$AAd?$AAd?$AA?2?$AAv?$AAc?$AAt?$AAo?$AAo?$AAl?$AAs?$AA?2?$AAc?$AAr?$AAt?$AA_?$AAb?$AAl?$AAd?$AA?2?$AAs?$AAe?$AAl?$AAf?$AA_?$AAx?$AA8?$AA6?$AA?2?$AAc@ 004806e8     LIBCMTD:fileno.obj
 0002:0000c748       ??_C@_1O@GKDHFACN@?$AAp?$AAr?$AAi?$AAn?$AAt?$AAf?$AA?$AA@ 00480748     LIBCMTD:printf.obj
 0002:0000c758       ??_C@_1GA@LHEGHOAF@?$AAf?$AA?3?$AA?2?$AAd?$AAd?$AA?2?$AAv?$AAc?$AAt?$AAo?$AAo?$AAl?$AAs?$AA?2?$AAc?$AAr?$AAt?$AA_?$AAb?$AAl?$AAd?$AA?2?$AAs?$AAe?$AAl?$AAf?$AA_?$AAx?$AA8?$AA6?$AA?2?$AAc@ 00480758     LIBCMTD:printf.obj
 0002:0000c7b8       ??_C@_1BI@IEADNOHF@?$AA_?$AAw?$AAc?$AAt?$AAo?$AAm?$AAb?$AA_?$AAs?$AA_?$AAl?$AA?$AA@ 004807b8     LIBCMTD:wctomb.obj
 0002:0000c7d0       ??_C@_1GA@LDLHPOO@?$AAf?$AA?3?$AA?2?$AAd?$AAd?$AA?2?$AAv?$AAc?$AAt?$AAo?$AAo?$AAl?$AAs?$AA?2?$AAc?$AAr?$AAt?$AA_?$AAb?$AAl?$AAd?$AA?2?$AAs?$AAe?$AAl?$AAf?$AA_?$AAx?$AA8?$AA6?$AA?2?$AAc@ 004807d0     LIBCMTD:wctomb.obj
 0002:0000c830       ??_C@_1CO@HFMIILNF@?$AAs?$AAi?$AAz?$AAe?$AAI?$AAn?$AAB?$AAy?$AAt?$AAe?$AAs?$AA?5?$AA?$DM?$AA?$DN?$AA?5?$AAI?$AAN?$AAT?$AA_?$AAM?$AAA?$AAX?$AA?$AA@ 00480830     LIBCMTD:wctomb.obj
 0002:0000c860       ??_C@_1FK@BCPANIEK@?$AA?$CI?$AA?$CC?$AAM?$AAi?$AAs?$AAs?$AAi?$AAn?$AAg?$AA?5?$AAp?$AAo?$AAs?$AAi?$AAt?$AAi?$AAo?$AAn?$AA?5?$AAi?$AAn?$AA?5?$AAt?$AAh?$AAe?$AA?5?$AAf?$AAo?$AAr?$AAm?$AAa?$AAt@ 00480860     LIBCMTD:outputp.obj
 0002:0000c8c0       ??_C@_1FK@LNCFKALM@?$AA?$CI?$AA?$CI?$AAs?$AAt?$AAa?$AAt?$AAe?$AA?5?$AA?$DN?$AA?$DN?$AA?5?$AAS?$AAT?$AA_?$AAN?$AAO?$AAR?$AAM?$AAA?$AAL?$AA?$CJ?$AA?5?$AA?$HM?$AA?$HM?$AA?5?$AA?$CI?$AAs?$AAt?$AAa?$AAt?$AAe?$AA?5@ 004808c0     LIBCMTD:outputp.obj
 0002:0000c920       ??_C@_1JC@OACKELNN@?$AA_?$AAt?$AAv?$AAa?$AAl?$AAi?$AAd?$AAa?$AAt?$AAe?$AA_?$AAp?$AAa?$AAr?$AAa?$AAm?$AA_?$AAr?$AAe?$AAu?$AAs?$AAe?$AA?$CI?$AA?$CG?$AAp?$AAo?$AAs?$AA_?$AAv?$AAa?$AAl?$AAu@ 00480920     LIBCMTD:outputp.obj
 0002:0000c9b8       ??_C@_1IK@NBGDDCBN@?$AA_?$AAt?$AAv?$AAa?$AAl?$AAi?$AAd?$AAa?$AAt?$AAe?$AA_?$AAp?$AAa?$AAr?$AAa?$AAm?$AA_?$AAr?$AAe?$AAu?$AAs?$AAe?$AA?$CI?$AA?$CG?$AAp?$AAo?$AAs?$AA_?$AAv?$AAa?$AAl?$AAu@ 004809b8     LIBCMTD:outputp.obj
 0002:0000ca44       ??_C@_1DG@GOHGNKHE@?$AAp?$AAa?$AAs?$AAs?$AA?5?$AA?$DN?$AA?$DN?$AA?5?$AAF?$AAO?$AAR?$AAM?$AAA?$AAT?$AA_?$AAO?$AAU?$AAT?$AAP?$AAU?$AAT?$AA_?$AAP?$AAA?$AAS?$AAS?$AA?$AA@ 00480a44     LIBCMTD:outputp.obj
 0002:0000ca80       ??_C@_1IM@DNGHAPLB@?$AA_?$AAt?$AAv?$AAa?$AAl?$AAi?$AAd?$AAa?$AAt?$AAe?$AA_?$AAp?$AAa?$AAr?$AAa?$AAm?$AA_?$AAr?$AAe?$AAu?$AAs?$AAe?$AA?$CI?$AA?$CG?$AAp?$AAo?$AAs?$AA_?$AAv?$AAa?$AAl?$AAu@ 00480a80     LIBCMTD:outputp.obj
 0002:0000cb10       ??_C@_1IG@HJIMKDHC@?$AA_?$AAt?$AAv?$AAa?$AAl?$AAi?$AAd?$AAa?$AAt?$AAe?$AA_?$AAp?$AAa?$AAr?$AAa?$AAm?$AA_?$AAr?$AAe?$AAu?$AAs?$AAe?$AA?$CI?$AA?$CG?$AAp?$AAo?$AAs?$AA_?$AAv?$AAa?$AAl?$AAu@ 00480b10     LIBCMTD:outputp.obj
 0002:0000cb98       ??_C@_1IG@FDCPLALG@?$AA_?$AAt?$AAv?$AAa?$AAl?$AAi?$AAd?$AAa?$AAt?$AAe?$AA_?$AAp?$AAa?$AAr?$AAa?$AAm?$AA_?$AAr?$AAe?$AAu?$AAs?$AAe?$AA?$CI?$AA?$CG?$AAp?$AAo?$AAs?$AA_?$AAv?$AAa?$AAl?$AAu@ 00480b98     LIBCMTD:outputp.obj
 0002:0000cc20       ??_C@_1IK@MHEDJAMK@?$AA_?$AAt?$AAv?$AAa?$AAl?$AAi?$AAd?$AAa?$AAt?$AAe?$AA_?$AAp?$AAa?$AAr?$AAa?$AAm?$AA_?$AAr?$AAe?$AAu?$AAs?$AAe?$AA?$CI?$AA?$CG?$AAp?$AAo?$AAs?$AA_?$AAv?$AAa?$AAl?$AAu@ 00480c20     LIBCMTD:outputp.obj
 0002:0000ccb0       ??_C@_1EM@BNPHBBIA@?$AA?$CI?$AA?$CI?$AAt?$AAy?$AAp?$AAe?$AA_?$AAp?$AAo?$AAs?$AA?$DO?$AA?$DN?$AA0?$AA?$CJ?$AA?5?$AA?$CG?$AA?$CG?$AA?5?$AA?$CI?$AAt?$AAy?$AAp?$AAe?$AA_?$AAp?$AAo?$AAs?$AA?$DM?$AA_?$AAA?$AAR?$AAG@ 00480cb0     LIBCMTD:outputp.obj
 0002:0000cd00       ??_C@_1IK@EIEPDKHJ@?$AA_?$AAt?$AAv?$AAa?$AAl?$AAi?$AAd?$AAa?$AAt?$AAe?$AA_?$AAp?$AAa?$AAr?$AAa?$AAm?$AA_?$AAr?$AAe?$AAu?$AAs?$AAe?$AA?$CI?$AA?$CG?$AAp?$AAo?$AAs?$AA_?$AAv?$AAa?$AAl?$AAu@ 00480d00     LIBCMTD:outputp.obj
 0002:0000cd90       ??_C@_1JG@JBJBOCFB@?$AA?$CI?$AA?$CI?$AAp?$AAr?$AAe?$AAc?$AAi?$AAs?$AA_?$AAp?$AAo?$AAs?$AA?5?$AA?$DO?$AA?$DN?$AA?5?$AA0?$AA?$CJ?$AA?5?$AA?$CG?$AA?$CG?$AA?5?$AA?$CI?$AA?$CK?$AAe?$AAn?$AAd?$AA_?$AAp?$AAo?$AAs?$AA?5@ 00480d90     LIBCMTD:outputp.obj
 0002:0000ce28       ??_C@_1II@PIPIMLPF@?$AA_?$AAt?$AAv?$AAa?$AAl?$AAi?$AAd?$AAa?$AAt?$AAe?$AA_?$AAp?$AAa?$AAr?$AAa?$AAm?$AA_?$AAr?$AAe?$AAu?$AAs?$AAe?$AA?$CI?$AA?$CG?$AAp?$AAo?$AAs?$AA_?$AAv?$AAa?$AAl?$AAu@ 00480e28     LIBCMTD:outputp.obj
 0002:0000ceb0       ??_C@_1JE@NMBHOLFI@?$AA?$CI?$AA?$CI?$AAw?$AAi?$AAd?$AAt?$AAh?$AA_?$AAp?$AAo?$AAs?$AA?5?$AA?$DO?$AA?$DN?$AA?5?$AA0?$AA?$CJ?$AA?5?$AA?$CG?$AA?$CG?$AA?5?$AA?$CI?$AA?$CK?$AAe?$AAn?$AAd?$AA_?$AAp?$AAo?$AAs?$AA?5?$AA?$DN@ 00480eb0     LIBCMTD:outputp.obj
 0002:0000cf48       ??_C@_1EE@DMAIGNBG@?$AA?$CI?$AA?$CC?$AAI?$AAn?$AAc?$AAo?$AAr?$AAr?$AAe?$AAc?$AAt?$AA?5?$AAf?$AAo?$AAr?$AAm?$AAa?$AAt?$AA?5?$AAs?$AAp?$AAe?$AAc?$AAi?$AAf?$AAi?$AAe?$AAr?$AA?$CC?$AA?0?$AA?5?$AA0@ 00480f48     LIBCMTD:outputp.obj
 0002:0000cf90       ??_C@_1JC@PFJNKEIO@?$AA?$CI?$AA?$CI?$AAt?$AAy?$AAp?$AAe?$AA_?$AAp?$AAo?$AAs?$AA?5?$AA?$DO?$AA?$DN?$AA?5?$AA0?$AA?$CJ?$AA?5?$AA?$CG?$AA?$CG?$AA?5?$AA?$CI?$AA?$CK?$AAe?$AAn?$AAd?$AA_?$AAp?$AAo?$AAs?$AA?5?$AA?$DN?$AA?$DN@ 00480f90     LIBCMTD:outputp.obj
 0002:0000d024       ??_C@_1BI@KANOLAMF@?$AA_?$AAo?$AAu?$AAt?$AAp?$AAu?$AAt?$AA_?$AAp?$AA_?$AAl?$AA?$AA@ 00481024     LIBCMTD:outputp.obj
 0002:0000d040       ___lookuptable_s           00481040     LIBCMTD:outputs.obj
 0002:0000d09c       ??_C@_1BI@COFBLHCG@?$AA_?$AAo?$AAu?$AAt?$AAp?$AAu?$AAt?$AA_?$AAs?$AA_?$AAl?$AA?$AA@ 0048109c     LIBCMTD:outputs.obj
 0002:0000d0b4       ??_C@_0BK@CFCOFLF@?5Complete?5Object?5Locator?8?$AA@ 004810b4     LIBCMTD:undname.obj
 0002:0000d0d0       ??_C@_0BN@MECKDCOJ@?5Class?5Hierarchy?5Descriptor?8?$AA@ 004810d0     LIBCMTD:undname.obj
 0002:0000d0f0       ??_C@_0BD@LGICGFMM@?5Base?5Class?5Array?8?$AA@ 004810f0     LIBCMTD:undname.obj
 0002:0000d104       ??_C@_0BM@LDKODKLH@?5Base?5Class?5Descriptor?5at?5?$CI?$AA@ 00481104     LIBCMTD:undname.obj
 0002:0000d120       ??_C@_0BC@DAFEJGAK@?5Type?5Descriptor?8?$AA@ 00481120     LIBCMTD:undname.obj
 0002:0000d134       ??_C@_0BM@PMGGMLDN@?$GAlocal?5static?5thread?5guard?8?$AA@ 00481134     LIBCMTD:undname.obj
 0002:0000d150       ??_C@_0CL@FGIJHLCE@?$GAmanaged?5vector?5copy?5constructor@ 00481150     LIBCMTD:undname.obj
 0002:0000d17c       ??_C@_0CJ@GJELGAMM@?$GAvector?5vbase?5copy?5constructor?5i@ 0048117c     LIBCMTD:undname.obj
 0002:0000d1a8       ??_C@_0CD@CGAJBKEJ@?$GAvector?5copy?5constructor?5iterato@ 004811a8     LIBCMTD:undname.obj
 0002:0000d1cc       ??_C@_0CB@PDBIFEP@?$GAdynamic?5atexit?5destructor?5for?5?8@ 004811cc     LIBCMTD:undname.obj
 0002:0000d1f0       ??_C@_0BL@CLIPGLGB@?$GAdynamic?5initializer?5for?5?8?$AA@ 004811f0     LIBCMTD:undname.obj
 0002:0000d20c       ??_C@_0CM@FCBBDIGB@?$GAeh?5vector?5vbase?5copy?5constructo@ 0048120c     LIBCMTD:undname.obj
 0002:0000d238       ??_C@_0CG@HLDDJMAG@?$GAeh?5vector?5copy?5constructor?5iter@ 00481238     LIBCMTD:undname.obj
 0002:0000d260       ??_C@_0CF@IMGKMJNO@?$GAmanaged?5vector?5destructor?5itera@ 00481260     LIBCMTD:undname.obj
 0002:0000d288       ??_C@_0CG@CFDHKGGD@?$GAmanaged?5vector?5constructor?5iter@ 00481288     LIBCMTD:undname.obj
 0002:0000d2b0       ??_C@_0BN@CKNJLHMB@?$GAplacement?5delete?$FL?$FN?5closure?8?$AA@ 004812b0     LIBCMTD:undname.obj
 0002:0000d2d0       ??_C@_0BL@CNOONJFP@?$GAplacement?5delete?5closure?8?$AA@ 004812d0     LIBCMTD:undname.obj
 0002:0000d2ec       ??_C@_0P@HJKNJFNN@?$GAomni?5callsig?8?$AA@ 004812ec     LIBCMTD:undname.obj
 0002:0000d2fc       ??_C@_09LBNFPBCA@?5delete?$FL?$FN?$AA@ 004812fc     LIBCMTD:undname.obj
 0002:0000d308       ??_C@_06FHBGPFGH@?5new?$FL?$FN?$AA@ 00481308     LIBCMTD:undname.obj
 0002:0000d310       ??_C@_0CE@IIHCMGGL@?$GAlocal?5vftable?5constructor?5closu@ 00481310     LIBCMTD:undname.obj
 0002:0000d334       ??_C@_0BA@KKLDJDLB@?$GAlocal?5vftable?8?$AA@ 00481334     LIBCMTD:undname.obj
 0002:0000d344       ??_C@_05KHLCHHI@?$GARTTI?$AA@ 00481344     LIBCMTD:undname.obj
 0002:0000d34c       ??_C@_03KLGMFNMG@?$GAEH?$AA@ 0048134c     LIBCMTD:undname.obj
 0002:0000d350       ??_C@_0BA@KBCDOMBN@?$GAudt?5returning?8?$AA@ 00481350     LIBCMTD:undname.obj
 0002:0000d360       ??_C@_0BL@LLKPOHJI@?$GAcopy?5constructor?5closure?8?$AA@ 00481360     LIBCMTD:undname.obj
 0002:0000d37c       ??_C@_0CH@OOJPLCPH@?$GAeh?5vector?5vbase?5constructor?5ite@ 0048137c     LIBCMTD:undname.obj
 0002:0000d3a4       ??_C@_0CA@GCEOPDGL@?$GAeh?5vector?5destructor?5iterator?8?$AA@ 004813a4     LIBCMTD:undname.obj
 0002:0000d3c4       ??_C@_0CB@JONCMFFK@?$GAeh?5vector?5constructor?5iterator?8@ 004813c4     LIBCMTD:undname.obj
 0002:0000d3e8       ??_C@_0BL@NILFHHPC@?$GAvirtual?5displacement?5map?8?$AA@ 004813e8     LIBCMTD:undname.obj
 0002:0000d404       ??_C@_0CE@IKBNEHA@?$GAvector?5vbase?5constructor?5iterat@ 00481404     LIBCMTD:undname.obj
 0002:0000d428       ??_C@_0BN@LFPFMEDL@?$GAvector?5destructor?5iterator?8?$AA@ 00481428     LIBCMTD:undname.obj
 0002:0000d448       ??_C@_0BO@PFGOCPJJ@?$GAvector?5constructor?5iterator?8?$AA@ 00481448     LIBCMTD:undname.obj
 0002:0000d468       ??_C@_0BN@IMDCHIKM@?$GAscalar?5deleting?5destructor?8?$AA@ 00481468     LIBCMTD:undname.obj
 0002:0000d488       ??_C@_0BO@OBMKPJIG@?$GAdefault?5constructor?5closure?8?$AA@ 00481488     LIBCMTD:undname.obj
 0002:0000d4a8       ??_C@_0BN@DEGPLNFK@?$GAvector?5deleting?5destructor?8?$AA@ 004814a8     LIBCMTD:undname.obj
 0002:0000d4c8       ??_C@_0BD@JDLKDPAB@?$GAvbase?5destructor?8?$AA@ 004814c8     LIBCMTD:undname.obj
 0002:0000d4dc       ??_C@_08OBABFOLI@?$GAstring?8?$AA@ 004814dc     LIBCMTD:undname.obj
 0002:0000d4e8       ??_C@_0BF@KDPPACIK@?$GAlocal?5static?5guard?8?$AA@ 004814e8     LIBCMTD:undname.obj
 0002:0000d500       ??_C@_08LLFFHHDJ@?$GAtypeof?8?$AA@ 00481500     LIBCMTD:undname.obj
 0002:0000d50c       ??_C@_07FEEIOKP@?$GAvcall?8?$AA@ 0048150c     LIBCMTD:undname.obj
 0002:0000d514       ??_C@_09BLBHBJP@?$GAvbtable?8?$AA@ 00481514     LIBCMTD:undname.obj
 0002:0000d520       ??_C@_09IFPLHPGF@?$GAvftable?8?$AA@ 00481520     LIBCMTD:undname.obj
 0002:0000d52c       ??_C@_02MHEGNOJ@?$FO?$DN?$AA@ 0048152c     LIBCMTD:undname.obj
 0002:0000d530       ??_C@_02DHLNPPGH@?$HM?$DN?$AA@ 00481530     LIBCMTD:undname.obj
 0002:0000d534       ??_C@_02FGJGFEAB@?$CG?$DN?$AA@ 00481534     LIBCMTD:undname.obj
 0002:0000d538       ??_C@_03CDNPDDLA@?$DM?$DM?$DN?$AA@ 00481538     LIBCMTD:undname.obj
 0002:0000d53c       ??_C@_03IKFCCPFF@?$DO?$DO?$DN?$AA@ 0048153c     LIBCMTD:undname.obj
 0002:0000d540       ??_C@_02FENAOKFI@?$CF?$DN?$AA@ 00481540     LIBCMTD:undname.obj
 0002:0000d544       ??_C@_02FJEHGPIO@?1?$DN?$AA@ 00481544     LIBCMTD:undname.obj
 0002:0000d548       ??_C@_02FKMDLLOA@?9?$DN?$AA@ 00481548     LIBCMTD:undname.obj
 0002:0000d54c       ??_C@_02FOEOMHFC@?$CL?$DN?$AA@ 0048154c     LIBCMTD:undname.obj
 0002:0000d550       ??_C@_02FPIMKNGF@?$CK?$DN?$AA@ 00481550     LIBCMTD:undname.obj
 0002:0000d554       ??_C@_02NONPIBCD@?$HM?$HM?$AA@ 00481554     LIBCMTD:undname.obj
 0002:0000d558       ??_C@_02PPKAJPJL@?$CG?$CG?$AA@ 00481558     LIBCMTD:undname.obj
 0002:0000d55c       ??_C@_01DNKMNLPK@?$HM?$AA@ 0048155c     LIBCMTD:undname.obj
 0002:0000d560       ??_C@_01JKBOJNNK@?$FO?$AA@ 00481560     LIBCMTD:undname.obj
 0002:0000d564       ??_C@_01PJKLJHI@?$HO?$AA@  00481564     LIBCMTD:undname.obj
 0002:0000d568       ??_C@_02HCKGKOFO@?$CI?$CJ?$AA@ 00481568     LIBCMTD:undname.obj
 0002:0000d56c       ??_C@_01IHBHIGKO@?0?$AA@   0048156c     LIBCMTD:undname.obj
 0002:0000d570       ??_C@_02EEKDKGMJ@?$DO?$DN?$AA@ 00481570     LIBCMTD:undname.obj
 0002:0000d574       ??_C@_01PPODPGHN@?$DO?$AA@ 00481574     LIBCMTD:undname.obj
 0002:0000d578       ??_C@_02EHCHHCKH@?$DM?$DN?$AA@ 00481578     LIBCMTD:undname.obj
 0002:0000d57c       ??_C@_01MNNFJEPP@?$DM?$AA@ 0048157c     LIBCMTD:undname.obj
 0002:0000d580       ??_C@_01FGNFDNOH@?$CF?$AA@ 00481580     LIBCMTD:undname.obj
 0002:0000d584       ??_C@_01KMDKNFGN@?1?$AA@   00481584     LIBCMTD:undname.obj
 0002:0000d588       ??_C@_03MNHNFDLC@?9?$DO?$CK?$AA@ 00481588     LIBCMTD:undname.obj
 0002:0000d58c       ??_C@_01HNPIGOCE@?$CG?$AA@ 0048158c     LIBCMTD:undname.obj
 0002:0000d590       ??_C@_01MIFGBAGJ@?$CL?$AA@ 00481590     LIBCMTD:undname.obj
 0002:0000d594       ??_C@_01JOAMLHOP@?9?$AA@   00481594     LIBCMTD:undname.obj
 0002:0000d598       ??_C@_02BAABKJLB@?9?9?$AA@ 00481598     LIBCMTD:undname.obj
 0002:0000d59c       ??_C@_02ECNGHCIF@?$CL?$CL?$AA@ 0048159c     LIBCMTD:undname.obj
 0002:0000d5a0       ??_C@_01NBENCBCI@?$CK?$AA@ 004815a0     LIBCMTD:undname.obj
 0002:0000d5a4       ??_C@_02HBOOOICD@?9?$DO?$AA@ 004815a4     LIBCMTD:undname.obj
 0002:0000d5a8       ??_C@_08LHJFAFGD@operator?$AA@ 004815a8     LIBCMTD:undname.obj
 0002:0000d5b4       ??_C@_02GPECMEKF@?$FL?$FN?$AA@ 004815b4     LIBCMTD:undname.obj
 0002:0000d5b8       ??_C@_02FDNJECIE@?$CB?$DN?$AA@ 004815b8     LIBCMTD:undname.obj
 0002:0000d5bc       ??_C@_02EGOFBIJA@?$DN?$DN?$AA@ 004815bc     LIBCMTD:undname.obj
 0002:0000d5c0       ??_C@_01DCLJPIOD@?$CB?$AA@ 004815c0     LIBCMTD:undname.obj
 0002:0000d5c4       ??_C@_02FODMEDOG@?$DM?$DM?$AA@ 004815c4     LIBCMTD:undname.obj
 0002:0000d5c8       ??_C@_02GPIOPFAK@?$DO?$DO?$AA@ 004815c8     LIBCMTD:undname.obj
 0002:0000d5cc       ??_C@_07FPCDHGMM@?5delete?$AA@ 004815cc     LIBCMTD:undname.obj
 0002:0000d5d4       ??_C@_04NIHEBCM@?5new?$AA@ 004815d4     LIBCMTD:undname.obj
 0002:0000d5dc       ??_C@_0M@GFIIJFMG@__unaligned?$AA@ 004815dc     LIBCMTD:undname.obj
 0002:0000d5e8       ??_C@_0L@PILCLIHE@__restrict?$AA@ 004815e8     LIBCMTD:undname.obj
 0002:0000d5f4       ??_C@_07JOMMBBKO@__ptr64?$AA@ 004815f4     LIBCMTD:undname.obj
 0002:0000d5fc       ??_C@_09HIJEGCPM@__clrcall?$AA@ 004815fc     LIBCMTD:undname.obj
 0002:0000d608       ??_C@_0L@JMKHOMEK@__fastcall?$AA@ 00481608     LIBCMTD:undname.obj
 0002:0000d614       ??_C@_0L@NPHFGOKO@__thiscall?$AA@ 00481614     LIBCMTD:undname.obj
 0002:0000d620       ??_C@_09IFJBGAPI@__stdcall?$AA@ 00481620     LIBCMTD:undname.obj
 0002:0000d62c       ??_C@_08GHMPAG@__pascal?$AA@ 0048162c     LIBCMTD:undname.obj
 0002:0000d638       ??_C@_07KOLFKCDI@__cdecl?$AA@ 00481638     LIBCMTD:undname.obj
 0002:0000d640       ??_C@_08EHJDFFNH@__based?$CI?$AA@ 00481640     LIBCMTD:undname.obj
 0002:0000d7d0       ??_C@_04HEJADOOB@CV?3?5?$AA@ 004817d0     LIBCMTD:undname.obj
 0002:0000d7d8       ??_C@_02MOLJINC@?3?3?$AA@  004817d8     LIBCMTD:undname.obj
 0002:0000d7dc       ??_C@_01GEODFPGF@?8?$AA@   004817dc     LIBCMTD:undname.obj
 0002:0000d7e0       ??_C@_01NLNLIGKH@?$GA?$AA@ 004817e0     LIBCMTD:undname.obj
 0002:0000d7e4       ??_C@_0O@KHGCOMHP@generic?9type?9?$AA@ 004817e4     LIBCMTD:undname.obj
 0002:0000d7f4       ??_C@_0BE@JAEOCHPE@template?9parameter?9?$AA@ 004817f4     LIBCMTD:undname.obj
 0002:0000d808       ??_C@_02OHHJMEON@?8?8?$AA@ 00481808     LIBCMTD:undname.obj
 0002:0000d80c       ??_C@_0BG@JNJLAMPM@?$GAanonymous?5namespace?8?$AA@ 0048180c     LIBCMTD:undname.obj
 0002:0000d824       ??_C@_0BN@IBLMMFAP@?$GAnon?9type?9template?9parameter?$AA@ 00481824     LIBCMTD:undname.obj
 0002:0000d844       ??_C@_0BE@EODMJLIF@?$GAtemplate?9parameter?$AA@ 00481844     LIBCMTD:undname.obj
 0002:0000d858       ??_C@_04GKJNKENE@void?$AA@ 00481858     LIBCMTD:undname.obj
 0002:0000d860       ??_C@_04HIBGFPH@NULL?$AA@  00481860     LIBCMTD:undname.obj
 0002:0000d868       ??_C@_0M@DHNBOJMP@extern?5?$CCC?$CC?5?$AA@ 00481868     LIBCMTD:undname.obj
 0002:0000d874       ??_C@_08KJLFOPNE@?$FLthunk?$FN?3?$AA@ 00481874     LIBCMTD:undname.obj
 0002:0000d880       ??_C@_08GPDDCMKI@public?3?5?$AA@ 00481880     LIBCMTD:undname.obj
 0002:0000d88c       ??_C@_0M@GAIFPFIP@protected?3?5?$AA@ 0048188c     LIBCMTD:undname.obj
 0002:0000d898       ??_C@_09LAPHOOG@private?3?5?$AA@ 00481898     LIBCMTD:undname.obj
 0002:0000d8a4       ??_C@_08NIEOINHE@virtual?5?$AA@ 004818a4     LIBCMTD:undname.obj
 0002:0000d8b0       ??_C@_07PGOEDBHP@static?5?$AA@ 004818b0     LIBCMTD:undname.obj
 0002:0000d8b8       ??_C@_0DA@HGFJFBBE@?$GAtemplate?5static?5data?5member?5des@ 004818b8     LIBCMTD:undname.obj
 0002:0000d8e8       ??_C@_0DB@ILEFOCIJ@?$GAtemplate?5static?5data?5member?5con@ 004818e8     LIBCMTD:undname.obj
 0002:0000d91c       ??_C@_0CB@KJDOOODE@?$GAlocal?5static?5destructor?5helper?8@ 0048191c     LIBCMTD:undname.obj
 0002:0000d940       ??_C@_0L@HNGCOGAE@?$GAadjustor?$HL?$AA@ 00481940     LIBCMTD:undname.obj
 0002:0000d94c       ??_C@_0L@GHPFDFH@?$GAvtordisp?$HL?$AA@ 0048194c     LIBCMTD:undname.obj
 0002:0000d958       ??_C@_0N@CBHHHENL@?$GAvtordispex?$HL?$AA@ 00481958     LIBCMTD:undname.obj
 0002:0000d968       ??_C@_01CLKCMJKC@?5?$AA@   00481968     LIBCMTD:undname.obj
 0002:0000d96c       ??_C@_02IGFCGPIL@?$HN?8?$AA@ 0048196c     LIBCMTD:undname.obj
 0002:0000d970       ??_C@_03OPGICMGF@?$HN?8?5?$AA@ 00481970     LIBCMTD:undname.obj
 0002:0000d974       ??_C@_02KCKGHPCA@?$CJ?5?$AA@ 00481974     LIBCMTD:undname.obj
 0002:0000d978       ??_C@_05BEFAKPML@void?5?$AA@ 00481978     LIBCMTD:undname.obj
 0002:0000d980       ??_C@_08PABEKFH@volatile?$AA@ 00481980     LIBCMTD:undname.obj
 0002:0000d98c       ??_C@_0M@ELJOJFFH@?0?$DMellipsis?$DO?$AA@ 0048198c     LIBCMTD:undname.obj
 0002:0000d998       ??_C@_04EENFHACM@?0?4?4?4?$AA@ 00481998     LIBCMTD:undname.obj
 0002:0000d9a0       ??_C@_0L@EGPHHEKN@?$DMellipsis?$DO?$AA@ 004819a0     LIBCMTD:undname.obj
 0002:0000d9ac       ??_C@_07HDJPLPEK@?5throw?$CI?$AA@ 004819ac     LIBCMTD:undname.obj
 0002:0000d9b4       ??_C@_09EFNPDFFP@?5volatile?$AA@ 004819b4     LIBCMTD:undname.obj
 0002:0000d9c0       ??_C@_05BNCCCJPP@const?$AA@ 004819c0     LIBCMTD:undname.obj
 0002:0000d9c8       ??_C@_07EDHNAJHC@signed?5?$AA@ 004819c8     LIBCMTD:undname.obj
 0002:0000d9d0       ??_C@_09EBBEKKIH@unsigned?5?$AA@ 004819d0     LIBCMTD:undname.obj
 0002:0000d9dc       ??_C@_07NFANNNEC@UNKNOWN?$AA@ 004819dc     LIBCMTD:undname.obj
 0002:0000d9e4       ??_C@_06GCICPBLB@__w64?5?$AA@ 004819e4     LIBCMTD:undname.obj
 0002:0000d9ec       ??_C@_07CLGGIAMF@wchar_t?$AA@ 004819ec     LIBCMTD:undname.obj
 0002:0000d9f4       ??_C@_08GAHOLHEO@__int128?$AA@ 004819f4     LIBCMTD:undname.obj
 0002:0000da00       ??_C@_07LFCOJCAC@__int64?$AA@ 00481a00     LIBCMTD:undname.obj
 0002:0000da08       ??_C@_07OFLPPHGP@__int32?$AA@ 00481a08     LIBCMTD:undname.obj
 0002:0000da10       ??_C@_07ICFHOGAF@__int16?$AA@ 00481a10     LIBCMTD:undname.obj
 0002:0000da18       ??_C@_06EBGKOKIG@__int8?$AA@ 00481a18     LIBCMTD:undname.obj
 0002:0000da20       ??_C@_04DDKJGDCM@bool?$AA@ 00481a20     LIBCMTD:undname.obj
 0002:0000da28       ??_C@_06BNJCAIGJ@double?$AA@ 00481a28     LIBCMTD:undname.obj
 0002:0000da30       ??_C@_05CJIMAING@long?5?$AA@ 00481a30     LIBCMTD:undname.obj
 0002:0000da38       ??_C@_05KNFBNCOH@float?$AA@ 00481a38     LIBCMTD:undname.obj
 0002:0000da40       ??_C@_04GOKPGOLB@long?$AA@ 00481a40     LIBCMTD:undname.obj
 0002:0000da48       ??_C@_03JBIPMCLC@int?$AA@  00481a48     LIBCMTD:undname.obj
 0002:0000da4c       ??_C@_05BFKKPKCG@short?$AA@ 00481a4c     LIBCMTD:undname.obj
 0002:0000da54       ??_C@_04ENMBGAPA@char?$AA@ 00481a54     LIBCMTD:undname.obj
 0002:0000da5c       ??_C@_05LJGMCFOG@enum?5?$AA@ 00481a5c     LIBCMTD:undname.obj
 0002:0000da64       ??_C@_0N@DLIEFKNA@cointerface?5?$AA@ 00481a64     LIBCMTD:undname.obj
 0002:0000da74       ??_C@_08KOFANOFK@coclass?5?$AA@ 00481a74     LIBCMTD:undname.obj
 0002:0000da80       ??_C@_06LJBABKPM@class?5?$AA@ 00481a80     LIBCMTD:undname.obj
 0002:0000da88       ??_C@_07DIBCDNGL@struct?5?$AA@ 00481a88     LIBCMTD:undname.obj
 0002:0000da90       ??_C@_06MOJHIBMG@union?5?$AA@ 00481a90     LIBCMTD:undname.obj
 0002:0000da98       ??_C@_0P@GCIFDJCJ@?$GAunknown?5ecsu?8?$AA@ 00481a98     LIBCMTD:undname.obj
 0002:0000daa8       ??_C@_04LAHKHJMA@int?5?$AA@ 00481aa8     LIBCMTD:undname.obj
 0002:0000dab0       ??_C@_06EHJMALKF@short?5?$AA@ 00481ab0     LIBCMTD:undname.obj
 0002:0000dab8       ??_C@_05CIHEBHNO@char?5?$AA@ 00481ab8     LIBCMTD:undname.obj
 0002:0000dac0       ??_C@_06LIJLOJAG@const?5?$AA@ 00481ac0     LIBCMTD:undname.obj
 0002:0000dac8       ??_C@_09GAIEOBLP@volatile?5?$AA@ 00481ac8     LIBCMTD:undname.obj
 0002:0000dad4       ??_C@_0O@GKABPPIF@cli?3?3pin_ptr?$DM?$AA@ 00481ad4     LIBCMTD:undname.obj
 0002:0000dae4       ??_C@_0M@EALIELKG@cli?3?3array?$DM?$AA@ 00481ae4     LIBCMTD:undname.obj
 0002:0000daf0       ??_C@_02GOGNNPBN@?$CJ?$FL?$AA@ 00481af0     LIBCMTD:undname.obj
 0002:0000daf4       ??_C@_06EEGAIFAK@?$HLflat?$HN?$AA@ 00481af4     LIBCMTD:undname.obj
 0002:0000dafc       ??_C@_02MDINNEEG@s?5?$AA@  00481afc     LIBCMTD:undname.obj
 0002:0000db00       ??_C@_05JIBOFOHK@?$HLfor?5?$AA@ 00481b00     LIBCMTD:undname.obj
 0002:0000db08       ??_7DNameNode@@6B@         00481b08     LIBCMTD:undname.obj
 0002:0000db14       ??_7charNode@@6B@          00481b14     LIBCMTD:undname.obj
 0002:0000db20       ??_7pcharNode@@6B@         00481b20     LIBCMTD:undname.obj
 0002:0000db2c       ??_7pDNameNode@@6B@        00481b2c     LIBCMTD:undname.obj
 0002:0000db38       ??_7DNameStatusNode@@6B@   00481b38     LIBCMTD:undname.obj
 0002:0000db44       ??_C@_04OKOHEJBO@?5?$DP?$DP?5?$AA@ 00481b44     LIBCMTD:undname.obj
 0002:0000db4c       ??_7pairNode@@6B@          00481b4c     LIBCMTD:undname.obj
 0002:0000db58       ??_C@_0L@KDOEJCKC@_nextafter?$AA@ 00481b58     LIBCMTD:_fpexcept_.obj
 0002:0000db64       ??_C@_05JGDBENOH@_logb?$AA@ 00481b64     LIBCMTD:_fpexcept_.obj
 0002:0000db6c       ??_C@_03ONILCKOB@_yn?$AA@  00481b6c     LIBCMTD:_fpexcept_.obj
 0002:0000db70       ??_C@_03NAKIGLHK@_y1?$AA@  00481b70     LIBCMTD:_fpexcept_.obj
 0002:0000db74       ??_C@_03MJLDFKDL@_y0?$AA@  00481b74     LIBCMTD:_fpexcept_.obj
 0002:0000db78       ??_C@_05GKKHEGJL@frexp?$AA@ 00481b78     LIBCMTD:_fpexcept_.obj
 0002:0000db80       ??_C@_04KEPJIHGP@fmod?$AA@ 00481b80     LIBCMTD:_fpexcept_.obj
 0002:0000db88       ??_C@_06MEIMCGCF@_hypot?$AA@ 00481b88     LIBCMTD:_fpexcept_.obj
 0002:0000db90       ??_C@_05KBKMEMPO@_cabs?$AA@ 00481b90     LIBCMTD:_fpexcept_.obj
 0002:0000db98       ??_C@_05CEJMAHNP@ldexp?$AA@ 00481b98     LIBCMTD:_fpexcept_.obj
 0002:0000dba0       ??_C@_04ODHECPBC@fabs?$AA@ 00481ba0     LIBCMTD:_fpexcept_.obj
 0002:0000dba8       ??_C@_04EIAKFFMI@sqrt?$AA@ 00481ba8     LIBCMTD:_fpexcept_.obj
 0002:0000dbb0       ??_C@_05KNGEOGJB@atan2?$AA@ 00481bb0     LIBCMTD:_fpexcept_.obj
 0002:0000dbb8       ??_C@_04FJHINJAO@tanh?$AA@ 00481bb8     LIBCMTD:_fpexcept_.obj
 0002:0000dbc0       ??_C@_04HPJJNFIM@cosh?$AA@ 00481bc0     LIBCMTD:_fpexcept_.obj
 0002:0000dbc8       ??_C@_04COOMCNPB@sinh?$AA@ 00481bc8     LIBCMTD:_fpexcept_.obj
 0002:0000dbd0       ??_C@_1CG@JEHFHLNG@?$AA_?$AAm?$AAb?$AAs?$AAt?$AAo?$AAw?$AAc?$AAs?$AA_?$AAl?$AA_?$AAh?$AAe?$AAl?$AAp?$AAe?$AAr?$AA?$AA@ 00481bd0     LIBCMTD:mbstowcs.obj
 0002:0000dbf8       ??_C@_1GE@LCCDHBMH@?$AAf?$AA?3?$AA?2?$AAd?$AAd?$AA?2?$AAv?$AAc?$AAt?$AAo?$AAo?$AAl?$AAs?$AA?2?$AAc?$AAr?$AAt?$AA_?$AAb?$AAl?$AAd?$AA?2?$AAs?$AAe?$AAl?$AAf?$AA_?$AAx?$AA8?$AA6?$AA?2?$AAc@ 00481bf8     LIBCMTD:mbstowcs.obj
 0002:0000dc5c       ??_C@_1BE@EEKACIGI@?$AAs?$AA?5?$AA?$CB?$AA?$DN?$AA?5?$AAN?$AAU?$AAL?$AAL?$AA?$AA@ 00481c5c     LIBCMTD:mbstowcs.obj
 0002:0000dc70       ??_C@_1CO@JNPEPJAL@?$AAr?$AAe?$AAt?$AAs?$AAi?$AAz?$AAe?$AA?5?$AA?$DM?$AA?$DN?$AA?5?$AAs?$AAi?$AAz?$AAe?$AAI?$AAn?$AAW?$AAo?$AAr?$AAd?$AAs?$AA?$AA@ 00481c70     LIBCMTD:mbstowcs.obj
 0002:0000dca0       ??_C@_1CM@LLECFMFH@?$AAb?$AAu?$AAf?$AAf?$AAe?$AAr?$AAS?$AAi?$AAz?$AAe?$AA?5?$AA?$DM?$AA?$DN?$AA?5?$AAI?$AAN?$AAT?$AA_?$AAM?$AAA?$AAX?$AA?$AA@ 00481ca0     LIBCMTD:mbstowcs.obj
 0002:0000dccc       ??_C@_1BM@PHENIGHD@?$AA_?$AAm?$AAb?$AAs?$AAt?$AAo?$AAw?$AAc?$AAs?$AA_?$AAs?$AA_?$AAl?$AA?$AA@ 00481ccc     LIBCMTD:mbstowcs.obj
 0002:0000dce8       ??_C@_1JA@JKDFMOPO@?$AA?$CI?$AAp?$AAw?$AAc?$AAs?$AA?5?$AA?$DN?$AA?$DN?$AA?5?$AAN?$AAU?$AAL?$AAL?$AA?5?$AA?$CG?$AA?$CG?$AA?5?$AAs?$AAi?$AAz?$AAe?$AAI?$AAn?$AAW?$AAo?$AAr?$AAd?$AAs?$AA?5?$AA?$DN?$AA?$DN?$AA?5@ 00481ce8     LIBCMTD:mbstowcs.obj
 0002:0000dd78       ??_C@_1FA@MJKDNFFB@?$AA?$CI?$AAL?$AA?$CC?$AAS?$AAt?$AAr?$AAi?$AAn?$AAg?$AA?5?$AAi?$AAs?$AA?5?$AAn?$AAo?$AAt?$AA?5?$AAn?$AAu?$AAl?$AAl?$AA?5?$AAt?$AAe?$AAr?$AAm?$AAi?$AAn?$AAa?$AAt?$AAe?$AAd@ 00481d78     LIBCMTD:strcat_s.obj
 0002:0000ddc8       ??_C@_1DM@FHLMIEG@?$AAS?$AAt?$AAr?$AAi?$AAn?$AAg?$AA?5?$AAi?$AAs?$AA?5?$AAn?$AAo?$AAt?$AA?5?$AAn?$AAu?$AAl?$AAl?$AA?5?$AAt?$AAe?$AAr?$AAm?$AAi?$AAn?$AAa?$AAt?$AAe?$AAd?$AA?$AA@ 00481dc8     LIBCMTD:strcat_s.obj
 0002:0000de04       ??_C@_1BC@HGPNAKGC@?$AAs?$AAt?$AAr?$AAc?$AAa?$AAt?$AA_?$AAs?$AA?$AA@ 00481e04     LIBCMTD:strcat_s.obj
 0002:0000de18       ??_C@_1GI@NOKGIAGA@?$AAf?$AA?3?$AA?2?$AAd?$AAd?$AA?2?$AAv?$AAc?$AAt?$AAo?$AAo?$AAl?$AAs?$AA?2?$AAc?$AAr?$AAt?$AA_?$AAb?$AAl?$AAd?$AA?2?$AAs?$AAe?$AAl?$AAf?$AA_?$AAx?$AA8?$AA6?$AA?2?$AAc@ 00481e18     LIBCMTD:strcat_s.obj
 0002:0000de80       ??_C@_1CM@HABGDNLJ@?$AAl?$AAe?$AAn?$AAg?$AAt?$AAh?$AA?5?$AA?$DM?$AA?5?$AAs?$AAi?$AAz?$AAe?$AAI?$AAn?$AAT?$AAC?$AAh?$AAa?$AAr?$AAs?$AA?$AA@ 00481e80     LIBCMTD:xtoas.obj
 0002:0000deac       ??_C@_1DE@PCJGDBBD@?$AA2?$AA?5?$AA?$DM?$AA?$DN?$AA?5?$AAr?$AAa?$AAd?$AAi?$AAx?$AA?5?$AA?$CG?$AA?$CG?$AA?5?$AAr?$AAa?$AAd?$AAi?$AAx?$AA?5?$AA?$DM?$AA?$DN?$AA?5?$AA3?$AA6?$AA?$AA@ 00481eac     LIBCMTD:xtoas.obj
 0002:0000dee0       ??_C@_1FA@MKGGAGEI@?$AAs?$AAi?$AAz?$AAe?$AAI?$AAn?$AAT?$AAC?$AAh?$AAa?$AAr?$AAs?$AA?5?$AA?$DO?$AA?5?$AA?$CI?$AAs?$AAi?$AAz?$AAe?$AA_?$AAt?$AA?$CJ?$AA?$CI?$AAi?$AAs?$AA_?$AAn?$AAe?$AAg?$AA?5?$AA?$DP@ 00481ee0     LIBCMTD:xtoas.obj
 0002:0000df30       ??_C@_1CC@JNJFIMGE@?$AAs?$AAi?$AAz?$AAe?$AAI?$AAn?$AAT?$AAC?$AAh?$AAa?$AAr?$AAs?$AA?5?$AA?$DO?$AA?5?$AA0?$AA?$AA@ 00481f30     LIBCMTD:xtoas.obj
 0002:0000df54       ??_C@_1O@GIMBNLEI@?$AAx?$AAt?$AAo?$AAa?$AA_?$AAs?$AA?$AA@ 00481f54     LIBCMTD:xtoas.obj
 0002:0000df68       ??_C@_1FM@MFCBFCGB@?$AAf?$AA?3?$AA?2?$AAd?$AAd?$AA?2?$AAv?$AAc?$AAt?$AAo?$AAo?$AAl?$AAs?$AA?2?$AAc?$AAr?$AAt?$AA_?$AAb?$AAl?$AAd?$AA?2?$AAs?$AAe?$AAl?$AAf?$AA_?$AAx?$AA8?$AA6?$AA?2?$AAc@ 00481f68     LIBCMTD:xtoas.obj
 0002:0000dfc4       ??_C@_1BC@MJJNBNFN@?$AAx?$AA6?$AA4?$AAt?$AAo?$AAa?$AA_?$AAs?$AA?$AA@ 00481fc4     LIBCMTD:xtoas.obj
 0002:0000dfd8       ??_C@_1CG@LLJCAOHF@?$AA_?$AAw?$AAc?$AAs?$AAt?$AAo?$AAm?$AAb?$AAs?$AA_?$AAl?$AA_?$AAh?$AAe?$AAl?$AAp?$AAe?$AAr?$AA?$AA@ 00481fd8     LIBCMTD:wcstombs.obj
 0002:0000e000       ??_C@_1GE@OAENIBOD@?$AAf?$AA?3?$AA?2?$AAd?$AAd?$AA?2?$AAv?$AAc?$AAt?$AAo?$AAo?$AAl?$AAs?$AA?2?$AAc?$AAr?$AAt?$AA_?$AAb?$AAl?$AAd?$AA?2?$AAs?$AAe?$AAl?$AAf?$AA_?$AAx?$AA8?$AA6?$AA?2?$AAc@ 00482000     LIBCMTD:wcstombs.obj
 0002:0000e064       ??_C@_1BK@OIBENBPM@?$AAp?$AAw?$AAc?$AAs?$AA?5?$AA?$CB?$AA?$DN?$AA?5?$AAN?$AAU?$AAL?$AAL?$AA?$AA@ 00482064     LIBCMTD:wcstombs.obj
 0002:0000e080       ??_C@_1CM@KEOGBFLI@?$AAs?$AAi?$AAz?$AAe?$AAI?$AAn?$AAB?$AAy?$AAt?$AAe?$AAs?$AA?5?$AA?$DO?$AA?5?$AAr?$AAe?$AAt?$AAs?$AAi?$AAz?$AAe?$AA?$AA@ 00482080     LIBCMTD:wcstombs.obj
 0002:0000e0ac       ??_C@_1BM@BDMCLLDL@?$AA_?$AAw?$AAc?$AAs?$AAt?$AAo?$AAm?$AAb?$AAs?$AA_?$AAs?$AA_?$AAl?$AA?$AA@ 004820ac     LIBCMTD:wcstombs.obj
 0002:0000e0c8       ??_C@_1IM@MFGKHGBP@?$AA?$CI?$AAd?$AAs?$AAt?$AA?5?$AA?$CB?$AA?$DN?$AA?5?$AAN?$AAU?$AAL?$AAL?$AA?5?$AA?$CG?$AA?$CG?$AA?5?$AAs?$AAi?$AAz?$AAe?$AAI?$AAn?$AAB?$AAy?$AAt?$AAe?$AAs?$AA?5?$AA?$DO?$AA?5?$AA0?$AA?$CJ@ 004820c8     LIBCMTD:wcstombs.obj
 0002:0000e154       ??_C@_1BC@PLIEPKPJ@?$AAw?$AAc?$AAs?$AAc?$AAa?$AAt?$AA_?$AAs?$AA?$AA@ 00482154     LIBCMTD:wcscat_s.obj
 0002:0000e168       ??_C@_1CE@IGKFIJFD@?$AA_?$AAv?$AAs?$AAw?$AAp?$AAr?$AAi?$AAn?$AAt?$AAf?$AA_?$AAh?$AAe?$AAl?$AAp?$AAe?$AAr?$AA?$AA@ 00482168     LIBCMTD:vswprnc.obj
 0002:0000e190       ??_C@_1GE@KINELFI@?$AAf?$AA?3?$AA?2?$AAd?$AAd?$AA?2?$AAv?$AAc?$AAt?$AAo?$AAo?$AAl?$AAs?$AA?2?$AAc?$AAr?$AAt?$AA_?$AAb?$AAl?$AAd?$AA?2?$AAs?$AAe?$AAl?$AAf?$AA_?$AAx?$AA8?$AA6?$AA?2?$AAc@ 00482190     LIBCMTD:vswprnc.obj
 0002:0000e1f8       ??_C@_1EE@MPCHJFGP@?$AAs?$AAt?$AAr?$AAi?$AAn?$AAg?$AA?5?$AA?$CB?$AA?$DN?$AA?5?$AAN?$AAU?$AAL?$AAL?$AA?5?$AA?$CG?$AA?$CG?$AA?5?$AAs?$AAi?$AAz?$AAe?$AAI?$AAn?$AAW?$AAo?$AAr?$AAd?$AAs?$AA?5?$AA?$DO?$AA?5@ 004821f8     LIBCMTD:vswprnc.obj
 0002:0000e23c       ??_C@_1BO@OALHJLCI@?$AA_?$AAv?$AAs?$AAw?$AAp?$AAr?$AAi?$AAn?$AAt?$AAf?$AA_?$AAs?$AA_?$AAl?$AA?$AA@ 0048223c     LIBCMTD:vswprnc.obj
 0002:0000e25c       ??_C@_1CA@BKFKMJFF@?$AA_?$AAv?$AAs?$AAn?$AAw?$AAp?$AAr?$AAi?$AAn?$AAt?$AAf?$AA_?$AAs?$AA_?$AAl?$AA?$AA@ 0048225c     LIBCMTD:vswprnc.obj
 0002:0000e27c       ??_C@_1O@NCBFODOE@?$AAx?$AAt?$AAo?$AAw?$AA_?$AAs?$AA?$AA@ 0048227c     LIBCMTD:xtows.obj
 0002:0000e28c       ??_C@_1BC@HDEJCFPB@?$AAx?$AA6?$AA4?$AAt?$AAo?$AAw?$AA_?$AAs?$AA?$AA@ 0048228c     LIBCMTD:xtows.obj
 0002:0000e2a0       ??_C@_0BC@JEAENNKH@SystemFunction036?$AA@ 004822a0     LIBCMTD:rand_s.obj
 0002:0000e2b8       ??_C@_1GA@EBEDGGGB@?$AA?$CI?$AA?$CC?$AAr?$AAa?$AAn?$AAd?$AA_?$AAs?$AA?5?$AAi?$AAs?$AA?5?$AAn?$AAo?$AAt?$AA?5?$AAa?$AAv?$AAa?$AAi?$AAl?$AAa?$AAb?$AAl?$AAe?$AA?5?$AAo?$AAn?$AA?5?$AAt?$AAh?$AAi@ 004822b8     LIBCMTD:rand_s.obj
 0002:0000e318       ??_C@_1O@IJGPPOGF@?$AAr?$AAa?$AAn?$AAd?$AA_?$AAs?$AA?$AA@ 00482318     LIBCMTD:rand_s.obj
 0002:0000e328       ??_C@_1GA@HBGBBKCD@?$AAf?$AA?3?$AA?2?$AAd?$AAd?$AA?2?$AAv?$AAc?$AAt?$AAo?$AAo?$AAl?$AAs?$AA?2?$AAc?$AAr?$AAt?$AA_?$AAb?$AAl?$AAd?$AA?2?$AAs?$AAe?$AAl?$AAf?$AA_?$AAx?$AA8?$AA6?$AA?2?$AAc@ 00482328     LIBCMTD:rand_s.obj
 0002:0000e388       ??_C@_1CK@GFDNDKK@?$AA_?$AAR?$AAa?$AAn?$AAd?$AAo?$AAm?$AAV?$AAa?$AAl?$AAu?$AAe?$AA?5?$AA?$CB?$AA?$DN?$AA?5?$AAN?$AAU?$AAL?$AAL?$AA?$AA@ 00482388     LIBCMTD:rand_s.obj
 0002:0000e3b8       ??_C@_1GO@NGIGJNHH@?$AAs?$AAt?$AAr?$AAn?$AAc?$AAp?$AAy?$AA_?$AAs?$AA?$CI?$AA?$CK?$AAs?$AAt?$AAr?$AAa?$AAd?$AAd?$AAr?$AAe?$AAs?$AAs?$AA?0?$AA?5?$AAo?$AAu?$AAt?$AAs?$AAi?$AAz?$AAe?$AA?0?$AA?5@ 004823b8     LIBCMTD:inithelp.obj
 0002:0000e428       ??_C@_1CA@KHHCPEI@?$AA_?$AA_?$AAg?$AAe?$AAt?$AAl?$AAo?$AAc?$AAa?$AAl?$AAe?$AAi?$AAn?$AAf?$AAo?$AA?$AA@ 00482428     LIBCMTD:inithelp.obj
 0002:0000e448       ??_C@_1GE@PLPIMDHG@?$AAf?$AA?3?$AA?2?$AAd?$AAd?$AA?2?$AAv?$AAc?$AAt?$AAo?$AAo?$AAl?$AAs?$AA?2?$AAc?$AAr?$AAt?$AA_?$AAb?$AAl?$AAd?$AA?2?$AAs?$AAe?$AAl?$AAf?$AA_?$AAx?$AA8?$AA6?$AA?2?$AAc@ 00482448     LIBCMTD:inithelp.obj
 0002:0000e4ac       ??_C@_0DC@CFDMMFIG@f?3?2dd?2vctools?2crt_bld?2self_x86?2c@ 004824ac     LIBCMTD:inithelp.obj
 0002:0000e4e0       ??_C@_1BG@BBCDFOMA@?$AA_?$AAw?$AAo?$AAu?$AAt?$AAp?$AAu?$AAt?$AA_?$AAl?$AA?$AA@ 004824e0     LIBCMTD:woutput.obj
 0002:0000e4f8       ??_C@_1BK@EPLNBKAK@?$AA_?$AAv?$AAs?$AAw?$AAp?$AAr?$AAi?$AAn?$AAt?$AAf?$AA_?$AAl?$AA?$AA@ 004824f8     LIBCMTD:vswprint.obj
 0002:0000e514       ??_C@_1CG@IMMIEPNA@?$AA_?$AAv?$AAs?$AAc?$AAw?$AAp?$AAr?$AAi?$AAn?$AAt?$AAf?$AA_?$AAh?$AAe?$AAl?$AAp?$AAe?$AAr?$AA?$AA@ 00482514     LIBCMTD:vswprint.obj
 0002:0000e53c       ??_C@_1CA@LFDHAMEM@?$AA_?$AAs?$AAe?$AAt?$AA_?$AAe?$AAr?$AAr?$AAo?$AAr?$AA_?$AAm?$AAo?$AAd?$AAe?$AA?$AA@ 0048253c     LIBCMTD:errmode.obj
 0002:0000e560       ??_C@_1GC@FGMGFCNB@?$AAf?$AA?3?$AA?2?$AAd?$AAd?$AA?2?$AAv?$AAc?$AAt?$AAo?$AAo?$AAl?$AAs?$AA?2?$AAc?$AAr?$AAt?$AA_?$AAb?$AAl?$AAd?$AA?2?$AAs?$AAe?$AAl?$AAf?$AA_?$AAx?$AA8?$AA6?$AA?2?$AAc@ 00482560     LIBCMTD:errmode.obj
 0002:0000e5c4       ??_C@_1DE@BCNCAIK@?$AA?$CI?$AA?$CC?$AAI?$AAn?$AAv?$AAa?$AAl?$AAi?$AAd?$AA?5?$AAe?$AAr?$AAr?$AAo?$AAr?$AA_?$AAm?$AAo?$AAd?$AAe?$AA?$CC?$AA?0?$AA?5?$AA0?$AA?$CJ?$AA?$AA@ 004825c4     LIBCMTD:errmode.obj
 0002:0000e5f8       ??_C@_0BK@CIDNPOGP@GetUserObjectInformationA?$AA@ 004825f8     LIBCMTD:crtmbox.obj
 0002:0000e614       ??_C@_0M@CHKKJDAI@MessageBoxA?$AA@ 00482614     LIBCMTD:crtmbox.obj
 0002:0000e620       ??_C@_0L@NDEGIDAG@USER32?4DLL?$AA@ 00482620     LIBCMTD:crtmbox.obj
 0002:0000e62c       ??_C@_1BE@NDMJHJJG@?$AAs?$AAt?$AAr?$AAn?$AAc?$AAp?$AAy?$AA_?$AAs?$AA?$AA@ 0048262c     LIBCMTD:strncpy_s.obj
 0002:0000e640       ??_C@_1GK@PAJJBKJF@?$AAf?$AA?3?$AA?2?$AAd?$AAd?$AA?2?$AAv?$AAc?$AAt?$AAo?$AAo?$AAl?$AAs?$AA?2?$AAc?$AAr?$AAt?$AA_?$AAb?$AAl?$AAd?$AA?2?$AAs?$AAe?$AAl?$AAf?$AA_?$AAx?$AA8?$AA6?$AA?2?$AAc@ 00482640     LIBCMTD:strncpy_s.obj
 0002:0000e6ac       ?commonFlags@?1??_control87@@9@9 004826ac     LIBCMTD:_ieee87_.obj
 0002:0000e6b0       ??_C@_1GO@OKJGOMCB@?$AA_?$AAc?$AAo?$AAn?$AAt?$AAr?$AAo?$AAl?$AAf?$AAp?$AA_?$AAs?$AA?$CI?$AA?$CI?$AA?$CI?$AAv?$AAo?$AAi?$AAd?$AA?5?$AA?$CK?$AA?$CJ?$AA0?$AA?$CJ?$AA?0?$AA?5?$AAn?$AAe?$AAw?$AAc?$AAt?$AAr@ 004826b0     LIBCMTD:_ieee87_.obj
 0002:0000e720       ??_C@_1BO@OFDNCLL@?$AA_?$AAs?$AAe?$AAt?$AA_?$AAc?$AAo?$AAn?$AAt?$AAr?$AAo?$AAl?$AAf?$AAp?$AA?$AA@ 00482720     LIBCMTD:_ieee87_.obj
 0002:0000e740       ??_C@_1HO@BFDKGHOI@?$AAf?$AA?3?$AA?2?$AAd?$AAd?$AA?2?$AAv?$AAc?$AAt?$AAo?$AAo?$AAl?$AAs?$AA?2?$AAc?$AAr?$AAt?$AA_?$AAb?$AAl?$AAd?$AA?2?$AAs?$AAe?$AAl?$AAf?$AA_?$AAx?$AA8?$AA6?$AA?2?$AAc@ 00482740     LIBCMTD:_ieee87_.obj
 0002:0000e7c0       ??_C@_13NOLLCAOD@?$AA?$AA?$AA?$AA@ 004827c0     LIBCMTD:a_map.obj
 0002:0000e7c8       ??_C@_1GA@INJGGEBC@?$AAf?$AA?3?$AA?2?$AAd?$AAd?$AA?2?$AAv?$AAc?$AAt?$AAo?$AAo?$AAl?$AAs?$AA?2?$AAc?$AAr?$AAt?$AA_?$AAb?$AAl?$AAd?$AA?2?$AAs?$AAe?$AAl?$AAf?$AA_?$AAx?$AA8?$AA6?$AA?2?$AAc@ 004827c8     LIBCMTD:a_map.obj
 0002:0000e828       ??_C@_1FE@KNPCCODH@?$AA?$CI?$AA?$CC?$AAC?$AAo?$AAr?$AAr?$AAu?$AAp?$AAt?$AAe?$AAd?$AA?5?$AAp?$AAo?$AAi?$AAn?$AAt?$AAe?$AAr?$AA?5?$AAp?$AAa?$AAs?$AAs?$AAe?$AAd?$AA?5?$AAt?$AAo?$AA?5?$AA_?$AAf@ 00482828     LIBCMTD:a_map.obj
 0002:0000e880       ___newctype                00482880     LIBCMTD:ctype.obj
 0002:0000eb80       __wctype                   00482b80     LIBCMTD:ctype.obj
 0002:0000ed88       ___newclmap                00482d88     LIBCMTD:ctype.obj
 0002:0000ef08       ___newcumap                00482f08     LIBCMTD:ctype.obj
 0002:0000f088       ??_C@_1GE@GJCMHHMH@?$AAf?$AA?3?$AA?2?$AAd?$AAd?$AA?2?$AAv?$AAc?$AAt?$AAo?$AAo?$AAl?$AAs?$AA?2?$AAc?$AAr?$AAt?$AA_?$AAb?$AAl?$AAd?$AA?2?$AAs?$AAe?$AAl?$AAf?$AA_?$AAx?$AA8?$AA6?$AA?2?$AAc@ 00483088     LIBCMTD:inittime.obj
 0002:0000f0f0       ??_C@_1EE@FDHCFDHN@?$AAp?$AAl?$AAo?$AAc?$AAi?$AA?9?$AA?$DO?$AAl?$AAc?$AA_?$AAt?$AAi?$AAm?$AAe?$AA_?$AAc?$AAu?$AAr?$AAr?$AA?9?$AA?$DO?$AAr?$AAe?$AAf?$AAc?$AAo?$AAu?$AAn?$AAt?$AA?5?$AA?$DO?$AA?5@ 004830f0     LIBCMTD:inittime.obj
 0002:0000f134       ??_C@_0DC@KICHHNFK@f?3?2dd?2vctools?2crt_bld?2self_x86?2c@ 00483134     LIBCMTD:inittime.obj
 0002:0000f168       ??_C@_1GC@EDJOCBCL@?$AAf?$AA?3?$AA?2?$AAd?$AAd?$AA?2?$AAv?$AAc?$AAt?$AAo?$AAo?$AAl?$AAs?$AA?2?$AAc?$AAr?$AAt?$AA_?$AAb?$AAl?$AAd?$AA?2?$AAs?$AAe?$AAl?$AAf?$AA_?$AAx?$AA8?$AA6?$AA?2?$AAc@ 00483168     LIBCMTD:initnum.obj
 0002:0000f1cc       ??_C@_1DM@IFKAINNE@?$AAp?$AAl?$AAo?$AAc?$AAi?$AA?9?$AA?$DO?$AAl?$AAc?$AAo?$AAn?$AAv?$AA_?$AAn?$AAu?$AAm?$AA_?$AAr?$AAe?$AAf?$AAc?$AAo?$AAu?$AAn?$AAt?$AA?5?$AA?$DO?$AA?5?$AA0?$AA?$AA@ 004831cc     LIBCMTD:initnum.obj
 0002:0000f208       ??_C@_0DB@KKFMDHFI@f?3?2dd?2vctools?2crt_bld?2self_x86?2c@ 00483208     LIBCMTD:initnum.obj
 0002:0000f240       ??_C@_1GC@IKADOFBJ@?$AAf?$AA?3?$AA?2?$AAd?$AAd?$AA?2?$AAv?$AAc?$AAt?$AAo?$AAo?$AAl?$AAs?$AA?2?$AAc?$AAr?$AAt?$AA_?$AAb?$AAl?$AAd?$AA?2?$AAs?$AAe?$AAl?$AAf?$AA_?$AAx?$AA8?$AA6?$AA?2?$AAc@ 00483240     LIBCMTD:initmon.obj
 0002:0000f2a4       ??_C@_1DM@GKAPAMDO@?$AAp?$AAl?$AAo?$AAc?$AAi?$AA?9?$AA?$DO?$AAl?$AAc?$AAo?$AAn?$AAv?$AA_?$AAm?$AAo?$AAn?$AA_?$AAr?$AAe?$AAf?$AAc?$AAo?$AAu?$AAn?$AAt?$AA?5?$AA?$DO?$AA?5?$AA0?$AA?$AA@ 004832a4     LIBCMTD:initmon.obj
 0002:0000f2e0       ??_C@_0DB@BECNGFDL@f?3?2dd?2vctools?2crt_bld?2self_x86?2c@ 004832e0     LIBCMTD:initmon.obj
 0002:0000f314       ??_C@_1DG@NMBGBDM@?$AAp?$AAl?$AAo?$AAc?$AAi?$AA?9?$AA?$DO?$AAc?$AAt?$AAy?$AAp?$AAe?$AA1?$AA_?$AAr?$AAe?$AAf?$AAc?$AAo?$AAu?$AAn?$AAt?$AA?5?$AA?$DO?$AA?5?$AA0?$AA?$AA@ 00483314     LIBCMTD:initctyp.obj
 0002:0000f350       ??_C@_1GE@OCPKBDKE@?$AAf?$AA?3?$AA?2?$AAd?$AAd?$AA?2?$AAv?$AAc?$AAt?$AAo?$AAo?$AAl?$AAs?$AA?2?$AAc?$AAr?$AAt?$AA_?$AAb?$AAl?$AAd?$AA?2?$AAs?$AAe?$AAl?$AAf?$AA_?$AAx?$AA8?$AA6?$AA?2?$AAc@ 00483350     LIBCMTD:initctyp.obj
 0002:0000f3b4       ??_C@_0DC@EHLBFILA@f?3?2dd?2vctools?2crt_bld?2self_x86?2c@ 004833b4     LIBCMTD:initctyp.obj
 0002:0000f3e8       ??_C@_08JCCMCCIL@HH?3mm?3ss?$AA@ 004833e8     LIBCMTD:strftime.obj
 0002:0000f3f4       ??_C@_0BE@CKGJFCPC@dddd?0?5MMMM?5dd?0?5yyyy?$AA@ 004833f4     LIBCMTD:strftime.obj
 0002:0000f408       ??_C@_08BPBNCDIB@MM?1dd?1yy?$AA@ 00483408     LIBCMTD:strftime.obj
 0002:0000f414       ??_C@_02CJNFDJBF@PM?$AA@   00483414     LIBCMTD:strftime.obj
 0002:0000f418       ??_C@_02DEDBPAFC@AM?$AA@   00483418     LIBCMTD:strftime.obj
 0002:0000f41c       ??_C@_08EDHMEBNP@December?$AA@ 0048341c     LIBCMTD:strftime.obj
 0002:0000f428       ??_C@_08HCHEGEOA@November?$AA@ 00483428     LIBCMTD:strftime.obj
 0002:0000f434       ??_C@_07JJNFCEND@October?$AA@ 00483434     LIBCMTD:strftime.obj
 0002:0000f43c       ??_C@_09BHHEALKD@September?$AA@ 0048343c     LIBCMTD:strftime.obj
 0002:0000f448       ??_C@_06LBBHFDDG@August?$AA@ 00483448     LIBCMTD:strftime.obj
 0002:0000f450       ??_C@_04MIEPOIFP@July?$AA@ 00483450     LIBCMTD:strftime.obj
 0002:0000f458       ??_C@_04CNLMGBGM@June?$AA@ 00483458     LIBCMTD:strftime.obj
 0002:0000f460       ??_C@_05DMJDNLEJ@April?$AA@ 00483460     LIBCMTD:strftime.obj
 0002:0000f468       ??_C@_05HPCKOFNC@March?$AA@ 00483468     LIBCMTD:strftime.obj
 0002:0000f470       ??_C@_08GNJGEPFN@February?$AA@ 00483470     LIBCMTD:strftime.obj
 0002:0000f47c       ??_C@_07CGJPFGJA@January?$AA@ 0048347c     LIBCMTD:strftime.obj
 0002:0000f484       ??_C@_03MKABNOCG@Dec?$AA@  00483484     LIBCMTD:strftime.obj
 0002:0000f488       ??_C@_03JPJOFNIA@Nov?$AA@  00483488     LIBCMTD:strftime.obj
 0002:0000f48c       ??_C@_03BMAOKBAD@Oct?$AA@  0048348c     LIBCMTD:strftime.obj
 0002:0000f490       ??_C@_03GGCAPAJC@Sep?$AA@  00483490     LIBCMTD:strftime.obj
 0002:0000f494       ??_C@_03IFJFEIGA@Aug?$AA@  00483494     LIBCMTD:strftime.obj
 0002:0000f498       ??_C@_03LBGABGKK@Jul?$AA@  00483498     LIBCMTD:strftime.obj
 0002:0000f49c       ??_C@_03IDFGHECI@Jun?$AA@  0048349c     LIBCMTD:strftime.obj
 0002:0000f4a0       ??_C@_03CNMDKL@May?$AA@    004834a0     LIBCMTD:strftime.obj
 0002:0000f4a4       ??_C@_03LEOLGMJP@Apr?$AA@  004834a4     LIBCMTD:strftime.obj
 0002:0000f4a8       ??_C@_03ODNJBKGA@Mar?$AA@  004834a8     LIBCMTD:strftime.obj
 0002:0000f4ac       ??_C@_03HJBDCHOM@Feb?$AA@  004834ac     LIBCMTD:strftime.obj
 0002:0000f4b0       ??_C@_03JIHJHPIE@Jan?$AA@  004834b0     LIBCMTD:strftime.obj
 0002:0000f4b4       ??_C@_08INBOOONO@Saturday?$AA@ 004834b4     LIBCMTD:strftime.obj
 0002:0000f4c0       ??_C@_06JECMNKMI@Friday?$AA@ 004834c0     LIBCMTD:strftime.obj
 0002:0000f4c8       ??_C@_08HACCIKIA@Thursday?$AA@ 004834c8     LIBCMTD:strftime.obj
 0002:0000f4d4       ??_C@_09DLIGFAKA@Wednesday?$AA@ 004834d4     LIBCMTD:strftime.obj
 0002:0000f4e0       ??_C@_07BAAGCFCM@Tuesday?$AA@ 004834e0     LIBCMTD:strftime.obj
 0002:0000f4e8       ??_C@_06JLEDEDGH@Monday?$AA@ 004834e8     LIBCMTD:strftime.obj
 0002:0000f4f0       ??_C@_06OOPIFAJ@Sunday?$AA@ 004834f0     LIBCMTD:strftime.obj
 0002:0000f4f8       ??_C@_03FEFJNEK@Sat?$AA@   004834f8     LIBCMTD:strftime.obj
 0002:0000f4fc       ??_C@_03IDIOELNC@Fri?$AA@  004834fc     LIBCMTD:strftime.obj
 0002:0000f500       ??_C@_03IOFIKPDN@Thu?$AA@  00483500     LIBCMTD:strftime.obj
 0002:0000f504       ??_C@_03MHOMLAJA@Wed?$AA@  00483504     LIBCMTD:strftime.obj
 0002:0000f508       ??_C@_03NAGEINEP@Tue?$AA@  00483508     LIBCMTD:strftime.obj
 0002:0000f50c       ??_C@_03PDAGKDH@Mon?$AA@   0048350c     LIBCMTD:strftime.obj
 0002:0000f510       ??_C@_03KOEHGMDN@Sun?$AA@  00483510     LIBCMTD:strftime.obj
 0002:0000f518       ??_C@_1FM@LPEPDBJF@?$AAs?$AAt?$AAr?$AAc?$AAp?$AAy?$AA_?$AAs?$AA?$CI?$AAs?$AA?0?$AA?5?$AA?$CI?$AAl?$AAe?$AAn?$AA?5?$AA?$CL?$AA?5?$AA1?$AA?$CJ?$AA?5?$AA?9?$AA?5?$AA?$CI?$AAs?$AA?5?$AA?9?$AA?5?$AAp?$AA?$CJ?$AA?0@ 00483518     LIBCMTD:strftime.obj
 0002:0000f578       ??_C@_1GG@NAGHPCAA@?$AAs?$AAt?$AAr?$AAc?$AAp?$AAy?$AA_?$AAs?$AA?$CI?$AAs?$AA?0?$AA?5?$AA?$CI?$AAl?$AAe?$AAn?$AA?5?$AA?$CL?$AA?5?$AA1?$AA?$CJ?$AA?5?$AA?9?$AA?5?$AA?$CI?$AAs?$AA?5?$AA?9?$AA?5?$AAp?$AA?$CJ?$AA?0@ 00483578     LIBCMTD:strftime.obj
 0002:0000f5e0       ??_C@_1BG@LGACIFJI@?$AA_?$AAG?$AAe?$AAt?$AAd?$AAa?$AAy?$AAs?$AA_?$AAl?$AA?$AA@ 004835e0     LIBCMTD:strftime.obj
 0002:0000f5f8       ??_C@_1GE@FCOIONJG@?$AAf?$AA?3?$AA?2?$AAd?$AAd?$AA?2?$AAv?$AAc?$AAt?$AAo?$AAo?$AAl?$AAs?$AA?2?$AAc?$AAr?$AAt?$AA_?$AAb?$AAl?$AAd?$AA?2?$AAs?$AAe?$AAl?$AAf?$AA_?$AAx?$AA8?$AA6?$AA?2?$AAc@ 004835f8     LIBCMTD:strftime.obj
 0002:0000f65c       ??_C@_0DC@MEPJBKMO@f?3?2dd?2vctools?2crt_bld?2self_x86?2c@ 0048365c     LIBCMTD:strftime.obj
 0002:0000f690       ??_C@_1FO@IFFKPIEL@?$AAs?$AAt?$AAr?$AAc?$AAp?$AAy?$AA_?$AAs?$AA?$CI?$AAs?$AA?0?$AA?5?$AA?$CI?$AAl?$AAe?$AAn?$AA?5?$AA?$CL?$AA?5?$AA1?$AA?$CJ?$AA?5?$AA?9?$AA?5?$AA?$CI?$AAs?$AA?5?$AA?9?$AA?5?$AAp?$AA?$CJ?$AA?0@ 00483690     LIBCMTD:strftime.obj
 0002:0000f6f0       ??_C@_1GI@LNJDDNLK@?$AAs?$AAt?$AAr?$AAc?$AAp?$AAy?$AA_?$AAs?$AA?$CI?$AAs?$AA?0?$AA?5?$AA?$CI?$AAl?$AAe?$AAn?$AA?5?$AA?$CL?$AA?5?$AA1?$AA?$CJ?$AA?5?$AA?9?$AA?5?$AA?$CI?$AAs?$AA?5?$AA?9?$AA?5?$AAp?$AA?$CJ?$AA?0@ 004836f0     LIBCMTD:strftime.obj
 0002:0000f758       ??_C@_1BK@IDMELNCB@?$AA_?$AAG?$AAe?$AAt?$AAm?$AAo?$AAn?$AAt?$AAh?$AAs?$AA_?$AAl?$AA?$AA@ 00483758     LIBCMTD:strftime.obj
 0002:0000f778       ??_C@_1FG@CJBIADLJ@?$AAs?$AAt?$AAr?$AAc?$AAp?$AAy?$AA_?$AAs?$AA?$CI?$AAs?$AA?0?$AA?5?$AAl?$AAe?$AAn?$AA?5?$AA?9?$AA?5?$AA?$CI?$AAs?$AA?5?$AA?9?$AA?5?$AAp?$AA?$CJ?$AA?0?$AA?5?$AAp?$AAt?$AA?9?$AA?$DO?$AAw@ 00483778     LIBCMTD:strftime.obj
 0002:0000f7d0       ??_C@_1FI@PPIHCJGH@?$AAs?$AAt?$AAr?$AAc?$AAp?$AAy?$AA_?$AAs?$AA?$CI?$AAs?$AA?0?$AA?5?$AAl?$AAe?$AAn?$AA?5?$AA?9?$AA?5?$AA?$CI?$AAs?$AA?5?$AA?9?$AA?5?$AAp?$AA?$CJ?$AA?0?$AA?5?$AAp?$AAt?$AA?9?$AA?$DO?$AAw@ 004837d0     LIBCMTD:strftime.obj
 0002:0000f828       ??_C@_1FI@GDNOPCGD@?$AAs?$AAt?$AAr?$AAc?$AAp?$AAy?$AA_?$AAs?$AA?$CI?$AAs?$AA?0?$AA?5?$AAl?$AAe?$AAn?$AA?5?$AA?9?$AA?5?$AA?$CI?$AAs?$AA?5?$AA?9?$AA?5?$AAp?$AA?$CJ?$AA?0?$AA?5?$AAp?$AAt?$AA?9?$AA?$DO?$AAw@ 00483828     LIBCMTD:strftime.obj
 0002:0000f880       ??_C@_1FA@MEHIJEIL@?$AAs?$AAt?$AAr?$AAc?$AAp?$AAy?$AA_?$AAs?$AA?$CI?$AAs?$AA?0?$AA?5?$AAl?$AAe?$AAn?$AA?5?$AA?9?$AA?5?$AA?$CI?$AAs?$AA?5?$AA?9?$AA?5?$AAp?$AA?$CJ?$AA?0?$AA?5?$AAp?$AAt?$AA?9?$AA?$DO?$AAa@ 00483880     LIBCMTD:strftime.obj
 0002:0000f8d0       ??_C@_1FA@INCJEBF@?$AAs?$AAt?$AAr?$AAc?$AAp?$AAy?$AA_?$AAs?$AA?$CI?$AAs?$AA?0?$AA?5?$AAl?$AAe?$AAn?$AA?5?$AA?9?$AA?5?$AA?$CI?$AAs?$AA?5?$AA?9?$AA?5?$AAp?$AA?$CJ?$AA?0?$AA?5?$AAp?$AAt?$AA?9?$AA?$DO?$AAa@ 004838d0     LIBCMTD:strftime.obj
 0002:0000f920       ??_C@_1FC@BEAPAEGE@?$AAs?$AAt?$AAr?$AAc?$AAp?$AAy?$AA_?$AAs?$AA?$CI?$AAs?$AA?0?$AA?5?$AAl?$AAe?$AAn?$AA?5?$AA?9?$AA?5?$AA?$CI?$AAs?$AA?5?$AA?9?$AA?5?$AAp?$AA?$CJ?$AA?0?$AA?5?$AAp?$AAt?$AA?9?$AA?$DO?$AAm@ 00483920     LIBCMTD:strftime.obj
 0002:0000f978       ??_C@_1FM@CHHONFED@?$AAs?$AAt?$AAr?$AAc?$AAp?$AAy?$AA_?$AAs?$AA?$CI?$AAs?$AA?0?$AA?5?$AAl?$AAe?$AAn?$AA?5?$AA?9?$AA?5?$AA?$CI?$AAs?$AA?5?$AA?9?$AA?5?$AAp?$AA?$CJ?$AA?0?$AA?5?$AAp?$AAt?$AA?9?$AA?$DO?$AAm@ 00483978     LIBCMTD:strftime.obj
 0002:0000f9d8       ??_C@_1FA@EBHJJADL@?$AAs?$AAt?$AAr?$AAc?$AAp?$AAy?$AA_?$AAs?$AA?$CI?$AAs?$AA?0?$AA?5?$AAl?$AAe?$AAn?$AA?5?$AA?9?$AA?5?$AA?$CI?$AAs?$AA?5?$AA?9?$AA?5?$AAp?$AA?$CJ?$AA?0?$AA?5?$AAp?$AAt?$AA?9?$AA?$DO?$AAw@ 004839d8     LIBCMTD:strftime.obj
 0002:0000fa28       ??_C@_1FK@ODMKEFLD@?$AAs?$AAt?$AAr?$AAc?$AAp?$AAy?$AA_?$AAs?$AA?$CI?$AAs?$AA?0?$AA?5?$AAl?$AAe?$AAn?$AA?5?$AA?9?$AA?5?$AA?$CI?$AAs?$AA?5?$AA?9?$AA?5?$AAp?$AA?$CJ?$AA?0?$AA?5?$AAp?$AAt?$AA?9?$AA?$DO?$AAw@ 00483a28     LIBCMTD:strftime.obj
 0002:0000fa84       ??_C@_1BK@MJNHIAGO@?$AA_?$AAG?$AAe?$AAt?$AAt?$AAn?$AAa?$AAm?$AAe?$AAs?$AA_?$AAl?$AA?$AA@ 00483a84     LIBCMTD:strftime.obj
 0002:0000faa0       ??_C@_1M@HCOOECOK@?$AAF?$AAA?$AAL?$AAS?$AAE?$AA?$AA@ 00483aa0     LIBCMTD:strftime.obj
 0002:0000fab0       ??_C@_1HC@JGDOBCNK@?$AA?$CI?$AA?$CC?$AAI?$AAn?$AAv?$AAa?$AAl?$AAi?$AAd?$AA?5?$AAM?$AAB?$AAC?$AAS?$AA?5?$AAc?$AAh?$AAa?$AAr?$AAa?$AAc?$AAt?$AAe?$AAr?$AA?5?$AAs?$AAe?$AAq?$AAu?$AAe?$AAn?$AAc@ 00483ab0     LIBCMTD:strftime.obj
 0002:0000fb24       ??_C@_1CA@COHOENPC@?$AAt?$AAi?$AAm?$AAe?$AAp?$AAt?$AAr?$AA?5?$AA?$CB?$AA?$DN?$AA?5?$AAN?$AAU?$AAL?$AAL?$AA?$AA@ 00483b24     LIBCMTD:strftime.obj
 0002:0000fb44       ??_C@_1CG@MHIOFJLE@?$AA?$CI?$AA?5?$AAf?$AAo?$AAr?$AAm?$AAa?$AAt?$AA?5?$AA?$CB?$AA?$DN?$AA?5?$AAN?$AAU?$AAL?$AAL?$AA?5?$AA?$CJ?$AA?$AA@ 00483b44     LIBCMTD:strftime.obj
 0002:0000fb6c       ??_C@_1CC@IHEJKGMG@?$AA?$CI?$AA?5?$AAm?$AAa?$AAx?$AAs?$AAi?$AAz?$AAe?$AA?5?$AA?$CB?$AA?$DN?$AA?5?$AA0?$AA?5?$AA?$CJ?$AA?$AA@ 00483b6c     LIBCMTD:strftime.obj
 0002:0000fb90       ??_C@_1BI@ONBMGNNA@?$AA_?$AAS?$AAt?$AAr?$AAf?$AAt?$AAi?$AAm?$AAe?$AA_?$AAl?$AA?$AA@ 00483b90     LIBCMTD:strftime.obj
 0002:0000fba8       ??_C@_1CG@MPKJHDAA@?$AA?$CI?$AA?5?$AAs?$AAt?$AAr?$AAi?$AAn?$AAg?$AA?5?$AA?$CB?$AA?$DN?$AA?5?$AAN?$AAU?$AAL?$AAL?$AA?5?$AA?$CJ?$AA?$AA@ 00483ba8     LIBCMTD:strftime.obj
 0002:0000fbd0       ??_C@_1EG@JNJKHKFI@?$AA?$CI?$AA?5?$AA?$CC?$AAI?$AAn?$AAv?$AAa?$AAl?$AAi?$AAd?$AA?5?$AAf?$AAo?$AAr?$AAm?$AAa?$AAt?$AA?5?$AAd?$AAi?$AAr?$AAe?$AAc?$AAt?$AAi?$AAv?$AAe?$AA?$CC?$AA?5?$AA?0?$AA?5?$AA0@ 00483bd0     LIBCMTD:strftime.obj
 0002:0000fc18       ??_C@_1HM@LBNGKIAD@?$AA?$CI?$AA?5?$AAt?$AAi?$AAm?$AAe?$AAp?$AAt?$AAr?$AA?9?$AA?$DO?$AAt?$AAm?$AA_?$AAy?$AAe?$AAa?$AAr?$AA?5?$AA?$DO?$AA?$DN?$AA?5?$AA?9?$AA1?$AA9?$AA0?$AA0?$AA?5?$AA?$CJ?$AA?5?$AA?$CG?$AA?$CG@ 00483c18     LIBCMTD:strftime.obj
 0002:0000fc94       ??_C@_1DC@NMCFBMJP@?$AA?$CI?$AA?5?$AAt?$AAi?$AAm?$AAe?$AAp?$AAt?$AAr?$AA?9?$AA?$DO?$AAt?$AAm?$AA_?$AAy?$AAe?$AAa?$AAr?$AA?5?$AA?$DO?$AA?$DN?$AA0?$AA?5?$AA?$CJ?$AA?$AA@ 00483c94     LIBCMTD:strftime.obj
 0002:0000fcc8       ??_C@_1HC@HLKHIKOB@?$AA?$CI?$AA?5?$AA?$CI?$AA?5?$AAt?$AAi?$AAm?$AAe?$AAp?$AAt?$AAr?$AA?9?$AA?$DO?$AAt?$AAm?$AA_?$AAs?$AAe?$AAc?$AA?5?$AA?$DO?$AA?$DN?$AA0?$AA?5?$AA?$CJ?$AA?5?$AA?$CG?$AA?$CG?$AA?5?$AA?$CI?$AA?5?$AAt@ 00483cc8     LIBCMTD:strftime.obj
 0002:0000fd40       ??_C@_1HC@IGKDPPHL@?$AA?$CI?$AA?5?$AA?$CI?$AA?5?$AAt?$AAi?$AAm?$AAe?$AAp?$AAt?$AAr?$AA?9?$AA?$DO?$AAt?$AAm?$AA_?$AAm?$AAi?$AAn?$AA?5?$AA?$DO?$AA?$DN?$AA0?$AA?5?$AA?$CJ?$AA?5?$AA?$CG?$AA?$CG?$AA?5?$AA?$CI?$AA?5?$AAt@ 00483d40     LIBCMTD:strftime.obj
 0002:0000fdb8       ??_C@_1HI@HHCJCPE@?$AA?$CI?$AA?5?$AA?$CI?$AA?5?$AAt?$AAi?$AAm?$AAe?$AAp?$AAt?$AAr?$AA?9?$AA?$DO?$AAt?$AAm?$AA_?$AAy?$AAd?$AAa?$AAy?$AA?5?$AA?$DO?$AA?$DN?$AA0?$AA?5?$AA?$CJ?$AA?5?$AA?$CG?$AA?$CG?$AA?5?$AA?$CI?$AA?5@ 00483db8     LIBCMTD:strftime.obj
 0002:0000fe30       ??_C@_1HG@KCGGFLNI@?$AA?$CI?$AA?5?$AA?$CI?$AA?5?$AAt?$AAi?$AAm?$AAe?$AAp?$AAt?$AAr?$AA?9?$AA?$DO?$AAt?$AAm?$AA_?$AAh?$AAo?$AAu?$AAr?$AA?5?$AA?$DO?$AA?$DN?$AA0?$AA?5?$AA?$CJ?$AA?5?$AA?$CG?$AA?$CG?$AA?5?$AA?$CI?$AA?5@ 00483e30     LIBCMTD:strftime.obj
 0002:0000fea8       ??_C@_1HG@NFHHOAD@?$AA?$CI?$AA?5?$AA?$CI?$AA?5?$AAt?$AAi?$AAm?$AAe?$AAp?$AAt?$AAr?$AA?9?$AA?$DO?$AAt?$AAm?$AA_?$AAm?$AAd?$AAa?$AAy?$AA?5?$AA?$DO?$AA?$DN?$AA1?$AA?5?$AA?$CJ?$AA?5?$AA?$CG?$AA?$CG?$AA?5?$AA?$CI?$AA?5@ 00483ea8     LIBCMTD:strftime.obj
 0002:0000ff20       ??_C@_1HC@OOAMILFB@?$AA?$CI?$AA?5?$AA?$CI?$AA?5?$AAt?$AAi?$AAm?$AAe?$AAp?$AAt?$AAr?$AA?9?$AA?$DO?$AAt?$AAm?$AA_?$AAm?$AAo?$AAn?$AA?5?$AA?$DO?$AA?$DN?$AA0?$AA?5?$AA?$CJ?$AA?5?$AA?$CG?$AA?$CG?$AA?5?$AA?$CI?$AA?5?$AAt@ 00483f20     LIBCMTD:strftime.obj
 0002:0000ff94       ??_C@_1BI@HBKPAJH@?$AA_?$AAe?$AAx?$AAp?$AAa?$AAn?$AAd?$AAt?$AAi?$AAm?$AAe?$AA?$AA@ 00483f94     LIBCMTD:strftime.obj
 0002:0000ffb0       ??_C@_1HE@BFLEOKFO@?$AA?$CI?$AA?5?$AA?$CI?$AA?5?$AAt?$AAi?$AAm?$AAe?$AAp?$AAt?$AAr?$AA?9?$AA?$DO?$AAt?$AAm?$AA_?$AAw?$AAd?$AAa?$AAy?$AA?5?$AA?$DO?$AA?$DN?$AA0?$AA?5?$AA?$CJ?$AA?5?$AA?$CG?$AA?$CG?$AA?5?$AA?$CI?$AA?5@ 00483fb0     LIBCMTD:strftime.obj
 0002:00010028       ??_C@_1HG@PAEENAPO@?$AA?$CI?$AA?$CC?$AAI?$AAn?$AAv?$AAa?$AAl?$AAi?$AAd?$AA?5?$AAM?$AAB?$AAC?$AAS?$AA?5?$AAc?$AAh?$AAa?$AAr?$AAa?$AAc?$AAt?$AAe?$AAr?$AA?5?$AAs?$AAe?$AAq?$AAu?$AAe?$AAn?$AAc@ 00484028     LIBCMTD:strftime.obj
 0002:000100a0       ??_C@_1IE@EIDABBDG@?$AA?$CI?$AA?$CC?$AAI?$AAn?$AAv?$AAa?$AAl?$AAi?$AAd?$AA?5?$AAM?$AAB?$AAC?$AAS?$AA?5?$AAc?$AAh?$AAa?$AAr?$AAa?$AAc?$AAt?$AAe?$AAr?$AA?5?$AAs?$AAe?$AAq?$AAu?$AAe?$AAn?$AAc@ 004840a0     LIBCMTD:strftime.obj
 0002:00010124       ??_C@_03EBAPMIKO@a?1p?$AA@ 00484124     LIBCMTD:strftime.obj
 0002:00010128       ??_C@_05JAMEPDIN@am?1pm?$AA@ 00484128     LIBCMTD:strftime.obj
 0002:00010130       ??_C@_0O@FMJNFNKE@united?9states?$AA@ 00484130     LIBCMTD:getqloc.obj
 0002:00010140       ??_C@_0P@NDHFFKCA@united?9kingdom?$AA@ 00484140     LIBCMTD:getqloc.obj
 0002:00010150       ??_C@_0BC@HHDADLGF@trinidad?5?$CG?5tobago?$AA@ 00484150     LIBCMTD:getqloc.obj
 0002:00010164       ??_C@_0M@IOAEBDAC@south?9korea?$AA@ 00484164     LIBCMTD:getqloc.obj
 0002:00010170       ??_C@_0N@FIELFKIJ@south?9africa?$AA@ 00484170     LIBCMTD:getqloc.obj
 0002:00010180       ??_C@_0M@OPNDHCMC@south?5korea?$AA@ 00484180     LIBCMTD:getqloc.obj
 0002:0001018c       ??_C@_0N@MDEOEPFI@south?5africa?$AA@ 0048418c     LIBCMTD:getqloc.obj
 0002:0001019c       ??_C@_06FKAPCJLB@slovak?$AA@ 0048419c     LIBCMTD:getqloc.obj
 0002:000101a4       ??_C@_0M@EFJANOAL@puerto?9rico?$AA@ 004841a4     LIBCMTD:getqloc.obj
 0002:000101b0       ??_C@_08PGOJKDAI@pr?9china?$AA@ 004841b0     LIBCMTD:getqloc.obj
 0002:000101bc       ??_C@_08JHDOMCMI@pr?5china?$AA@ 004841bc     LIBCMTD:getqloc.obj
 0002:000101c8       ??_C@_02JHCHFBLL@nz?$AA@   004841c8     LIBCMTD:getqloc.obj
 0002:000101cc       ??_C@_0M@LINHDHKP@new?9zealand?$AA@ 004841cc     LIBCMTD:getqloc.obj
 0002:000101d8       ??_C@_09IIIPPBDB@hong?9kong?$AA@ 004841d8     LIBCMTD:getqloc.obj
 0002:000101e4       ??_C@_07HJLCKBG@holland?$AA@ 004841e4     LIBCMTD:getqloc.obj
 0002:000101ec       ??_C@_0O@LEHGMHAG@great?5britain?$AA@ 004841ec     LIBCMTD:getqloc.obj
 0002:000101fc       ??_C@_07FACOMELA@england?$AA@ 004841fc     LIBCMTD:getqloc.obj
 0002:00010204       ??_C@_05JIHCEICB@czech?$AA@ 00484204     LIBCMTD:getqloc.obj
 0002:0001020c       ??_C@_05BBJOBLGB@china?$AA@ 0048420c     LIBCMTD:getqloc.obj
 0002:00010214       ??_C@_07GPKPHICP@britain?$AA@ 00484214     LIBCMTD:getqloc.obj
 0002:0001021c       ??_C@_07MHIPBHMG@america?$AA@ 0048421c     LIBCMTD:getqloc.obj
 0002:00010224       ??_C@_03KIALPMKC@usa?$AA@  00484224     LIBCMTD:getqloc.obj
 0002:00010228       ??_C@_02FGJGKGGD@us?$AA@   00484228     LIBCMTD:getqloc.obj
 0002:0001022c       ??_C@_02NEINDODK@uk?$AA@   0048422c     LIBCMTD:getqloc.obj
 0002:00010230       ??_C@_05JMPCFJFJ@swiss?$AA@ 00484230     LIBCMTD:getqloc.obj
 0002:00010238       ??_C@_0BA@HLOCPIOD@swedish?9finland?$AA@ 00484238     LIBCMTD:getqloc.obj
 0002:00010248       ??_C@_0BC@PKCNIABK@spanish?9venezuela?$AA@ 00484248     LIBCMTD:getqloc.obj
 0002:0001025c       ??_C@_0BA@GBHHMIJI@spanish?9uruguay?$AA@ 0048425c     LIBCMTD:getqloc.obj
 0002:0001026c       ??_C@_0BE@BHDOHPMC@spanish?9puerto?5rico?$AA@ 0048426c     LIBCMTD:getqloc.obj
 0002:00010280       ??_C@_0N@KMOIDGGN@spanish?9peru?$AA@ 00484280     LIBCMTD:getqloc.obj
 0002:00010290       ??_C@_0BB@HMHLPGPH@spanish?9paraguay?$AA@ 00484290     LIBCMTD:getqloc.obj
 0002:000102a4       ??_C@_0P@MCPKNGFD@spanish?9panama?$AA@ 004842a4     LIBCMTD:getqloc.obj
 0002:000102b4       ??_C@_0BC@IHOHGAIL@spanish?9nicaragua?$AA@ 004842b4     LIBCMTD:getqloc.obj
 0002:000102c8       ??_C@_0P@KLMJDNFJ@spanish?9modern?$AA@ 004842c8     LIBCMTD:getqloc.obj
 0002:000102d8       ??_C@_0BA@BPAPGBCM@spanish?9mexican?$AA@ 004842d8     LIBCMTD:getqloc.obj
 0002:000102e8       ??_C@_0BB@PDECHHHE@spanish?9honduras?$AA@ 004842e8     LIBCMTD:getqloc.obj
 0002:000102fc       ??_C@_0BC@KLHKFGDB@spanish?9guatemala?$AA@ 004842fc     LIBCMTD:getqloc.obj
 0002:00010310       ??_C@_0BE@MFOOKJAI@spanish?9el?5salvador?$AA@ 00484310     LIBCMTD:getqloc.obj
 0002:00010324       ??_C@_0BA@FCOKFPFC@spanish?9ecuador?$AA@ 00484324     LIBCMTD:getqloc.obj
 0002:00010334       ??_C@_0BL@PLMGIMOO@spanish?9dominican?5republic?$AA@ 00484334     LIBCMTD:getqloc.obj
 0002:00010350       ??_C@_0BD@HLGDNMHB@spanish?9costa?5rica?$AA@ 00484350     LIBCMTD:getqloc.obj
 0002:00010364       ??_C@_0BB@PKCBKCPE@spanish?9colombia?$AA@ 00484364     LIBCMTD:getqloc.obj
 0002:00010378       ??_C@_0O@MCBIJGNE@spanish?9chile?$AA@ 00484378     LIBCMTD:getqloc.obj
 0002:00010388       ??_C@_0BA@BEFEIGJJ@spanish?9bolivia?$AA@ 00484388     LIBCMTD:getqloc.obj
 0002:00010398       ??_C@_0BC@EMECMPD@spanish?9argentina?$AA@ 00484398     LIBCMTD:getqloc.obj
 0002:000103ac       ??_C@_0BF@EALFLENP@portuguese?9brazilian?$AA@ 004843ac     LIBCMTD:getqloc.obj
 0002:000103c4       ??_C@_0BC@HBLEBLNN@norwegian?9nynorsk?$AA@ 004843c4     LIBCMTD:getqloc.obj
 0002:000103d8       ??_C@_0BB@HMACDDCK@norwegian?9bokmal?$AA@ 004843d8     LIBCMTD:getqloc.obj
 0002:000103ec       ??_C@_09BAFFPPHE@norwegian?$AA@ 004843ec     LIBCMTD:getqloc.obj
 0002:000103f8       ??_C@_0O@EAJFJDFG@italian?9swiss?$AA@ 004843f8     LIBCMTD:getqloc.obj
 0002:00010408       ??_C@_0O@CNOMPGD@irish?9english?$AA@ 00484408     LIBCMTD:getqloc.obj
 0002:00010418       ??_C@_0N@EDHBGCKG@german?9swiss?$AA@ 00484418     LIBCMTD:getqloc.obj
 0002:00010428       ??_C@_0BC@JACMHNBP@german?9luxembourg?$AA@ 00484428     LIBCMTD:getqloc.obj
 0002:0001043c       ??_C@_0BE@HBGMGFEG@german?9lichtenstein?$AA@ 0048443c     LIBCMTD:getqloc.obj
 0002:00010450       ??_C@_0BA@HKKBIBKL@german?9austrian?$AA@ 00484450     LIBCMTD:getqloc.obj
 0002:00010460       ??_C@_0N@GCAEPEBK@french?9swiss?$AA@ 00484460     LIBCMTD:getqloc.obj
 0002:00010470       ??_C@_0BC@DJFJJCK@french?9luxembourg?$AA@ 00484470     LIBCMTD:getqloc.obj
 0002:00010484       ??_C@_0BA@NNCEDFIC@french?9canadian?$AA@ 00484484     LIBCMTD:getqloc.obj
 0002:00010494       ??_C@_0P@CMPOCLM@french?9belgian?$AA@ 00484494     LIBCMTD:getqloc.obj
 0002:000104a4       ??_C@_0M@GHHDJOK@english?9usa?$AA@ 004844a4     LIBCMTD:getqloc.obj
 0002:000104b0       ??_C@_0L@PLDJKEIL@english?9us?$AA@ 004844b0     LIBCMTD:getqloc.obj
 0002:000104bc       ??_C@_0L@HJCCDMNC@english?9uk?$AA@ 004844bc     LIBCMTD:getqloc.obj
 0002:000104c8       ??_C@_0BK@CKLIAGJB@english?9trinidad?5y?5tobago?$AA@ 004844c8     LIBCMTD:getqloc.obj
 0002:000104e4       ??_C@_0BF@JMJMGNNF@english?9south?5africa?$AA@ 004844e4     LIBCMTD:getqloc.obj
 0002:000104fc       ??_C@_0L@DKIIFDFD@english?9nz?$AA@ 004844fc     LIBCMTD:getqloc.obj
 0002:00010508       ??_C@_0BA@ONHGJCLH@english?9jamaica?$AA@ 00484508     LIBCMTD:getqloc.obj
 0002:00010518       ??_C@_0M@HJBGHOPO@english?9ire?$AA@ 00484518     LIBCMTD:getqloc.obj
 0002:00010524       ??_C@_0BC@LFEKMIFB@english?9caribbean?$AA@ 00484524     LIBCMTD:getqloc.obj
 0002:00010538       ??_C@_0M@OLDPFKHI@english?9can?$AA@ 00484538     LIBCMTD:getqloc.obj
 0002:00010544       ??_C@_0P@OMDEHBMP@english?9belize?$AA@ 00484544     LIBCMTD:getqloc.obj
 0002:00010554       ??_C@_0M@KFHFPFED@english?9aus?$AA@ 00484554     LIBCMTD:getqloc.obj
 0002:00010560       ??_C@_0BB@MNMBKDFE@english?9american?$AA@ 00484560     LIBCMTD:getqloc.obj
 0002:00010574       ??_C@_0O@KIDLNNBA@dutch?9belgian?$AA@ 00484574     LIBCMTD:getqloc.obj
 0002:00010584       ??_C@_0BE@JBKABBMH@chinese?9traditional?$AA@ 00484584     LIBCMTD:getqloc.obj
 0002:00010598       ??_C@_0BC@MJJMPKCG@chinese?9singapore?$AA@ 00484598     LIBCMTD:getqloc.obj
 0002:000105ac       ??_C@_0BD@FDKADDCP@chinese?9simplified?$AA@ 004845ac     LIBCMTD:getqloc.obj
 0002:000105c0       ??_C@_0BB@DBEFDDME@chinese?9hongkong?$AA@ 004845c0     LIBCMTD:getqloc.obj
 0002:000105d4       ??_C@_07DHNMFMCI@chinese?$AA@ 004845d4     LIBCMTD:getqloc.obj
 0002:000105dc       ??_C@_03FNDDCHI@chi?$AA@   004845dc     LIBCMTD:getqloc.obj
 0002:000105e0       ??_C@_03BMMIADDJ@chh?$AA@  004845e0     LIBCMTD:getqloc.obj
 0002:000105e4       ??_C@_08OAIPJDGI@canadian?$AA@ 004845e4     LIBCMTD:getqloc.obj
 0002:000105f0       ??_C@_07HBPMNPNJ@belgian?$AA@ 004845f0     LIBCMTD:getqloc.obj
 0002:000105f8       ??_C@_0L@OEKOPBEL@australian?$AA@ 004845f8     LIBCMTD:getqloc.obj
 0002:00010604       ??_C@_0BB@MEIMBEDG@american?9english?$AA@ 00484604     LIBCMTD:getqloc.obj
 0002:00010618       ??_C@_0BB@DFMDPDGB@american?5english?$AA@ 00484618     LIBCMTD:getqloc.obj
 0002:0001062c       ??_C@_08IJLOKOLL@american?$AA@ 0048462c     LIBCMTD:getqloc.obj
 0002:00010638       ___rg_language             00484638     LIBCMTD:getqloc.obj
 0002:00010840       ___rg_country              00484840     LIBCMTD:getqloc.obj
 0002:000108f8       ___rglangidNotDefault      004848f8     LIBCMTD:getqloc.obj
 0002:0001090c       ??_C@_0BC@NFIEMBLL@Norwegian?9Nynorsk?$AA@ 0048490c     LIBCMTD:getqloc.obj
 0002:00010920       ??_C@_1OM@OECHDGCF@?$AAs?$AAt?$AAr?$AAc?$AAp?$AAy?$AA_?$AAs?$AA?$CI?$AAl?$AAp?$AAO?$AAu?$AAt?$AAS?$AAt?$AAr?$AA?9?$AA?$DO?$AAs?$AAz?$AAL?$AAa?$AAn?$AAg?$AAu?$AAa?$AAg?$AAe?$AA?0?$AA?5?$AA?$CI@ 00484920     LIBCMTD:getqloc.obj
 0002:00010a0c       ??_C@_1CO@NJACLALJ@?$AA_?$AA_?$AAg?$AAe?$AAt?$AA_?$AAq?$AAu?$AAa?$AAl?$AAi?$AAf?$AAi?$AAe?$AAd?$AA_?$AAl?$AAo?$AAc?$AAa?$AAl?$AAe?$AA?$AA@ 00484a0c     LIBCMTD:getqloc.obj
 0002:00010a40       ??_C@_1GC@FECJGAE@?$AAf?$AA?3?$AA?2?$AAd?$AAd?$AA?2?$AAv?$AAc?$AAt?$AAo?$AAo?$AAl?$AAs?$AA?2?$AAc?$AAr?$AAt?$AA_?$AAb?$AAl?$AAd?$AA?2?$AAs?$AAe?$AAl?$AAf?$AA_?$AAx?$AA8?$AA6?$AA?2?$AAc@ 00484a40     LIBCMTD:getqloc.obj
 0002:00010aa4       ??_C@_03NFKLAGEF@OCP?$AA@  00484aa4     LIBCMTD:getqloc.obj
 0002:00010aa8       ??_C@_01GBGANLPD@0?$AA@    00484aa8     LIBCMTD:getqloc.obj
 0002:00010aac       ??_C@_03DFHEHBHG@ACP?$AA@  00484aac     LIBCMTD:getqloc.obj
 0002:00010ab0       ??_C@_1BO@IHLJHOPI@?$AA_?$AA_?$AAs?$AAt?$AAr?$AAg?$AAt?$AAo?$AAl?$AAd?$AA1?$AA2?$AA_?$AAl?$AA?$AA@ 00484ab0     LIBCMTD:_strgtold_.obj
 0002:00010ad0       ??_C@_1IG@IGKPPFIM@?$AAf?$AA?3?$AA?2?$AAd?$AAd?$AA?2?$AAv?$AAc?$AAt?$AAo?$AAo?$AAl?$AAs?$AA?2?$AAc?$AAr?$AAt?$AA_?$AAb?$AAl?$AAd?$AA?2?$AAs?$AAe?$AAl?$AAf?$AA_?$AAx?$AA8?$AA6?$AA?2?$AAc@ 00484ad0     LIBCMTD:_strgtold_.obj
 0002:00010b58       ??_C@_1CA@MBDBOHIB@?$AA_?$AAL?$AAo?$AAc?$AAa?$AAl?$AAe?$AA?5?$AA?$CB?$AA?$DN?$AA?5?$AAN?$AAU?$AAL?$AAL?$AA?$AA@ 00484b58     LIBCMTD:_strgtold_.obj
 0002:00010b78       ??_C@_06IMKFLFPG@1?$CDQNAN?$AA@ 00484b78     LIBCMTD:_x10fout_.obj
 0002:00010b80       ??_C@_1EG@MCFPJJEM@?$AAs?$AAt?$AAr?$AAc?$AAp?$AAy?$AA_?$AAs?$AA?$CI?$AAf?$AAo?$AAs?$AA?9?$AA?$DO?$AAm?$AAa?$AAn?$AA?0?$AA?5?$AA2?$AA1?$AA?$CL?$AA1?$AA?0?$AA?5?$AA?$CC?$AA1?$AA?$CD?$AAQ?$AAN?$AAA?$AAN@ 00484b80     LIBCMTD:_x10fout_.obj
 0002:00010bc8       ??_C@_05DNEBIAHO@1?$CDINF?$AA@ 00484bc8     LIBCMTD:_x10fout_.obj
 0002:00010bd0       ??_C@_1EE@ICBBBPAI@?$AAs?$AAt?$AAr?$AAc?$AAp?$AAy?$AA_?$AAs?$AA?$CI?$AAf?$AAo?$AAs?$AA?9?$AA?$DO?$AAm?$AAa?$AAn?$AA?0?$AA?5?$AA2?$AA1?$AA?$CL?$AA1?$AA?0?$AA?5?$AA?$CC?$AA1?$AA?$CD?$AAI?$AAN?$AAF?$AA?$CC@ 00484bd0     LIBCMTD:_x10fout_.obj
 0002:00010c14       ??_C@_05PHHOCPM@1?$CDIND?$AA@ 00484c14     LIBCMTD:_x10fout_.obj
 0002:00010c20       ??_C@_1EE@MADEBIHF@?$AAs?$AAt?$AAr?$AAc?$AAp?$AAy?$AA_?$AAs?$AA?$CI?$AAf?$AAo?$AAs?$AA?9?$AA?$DO?$AAm?$AAa?$AAn?$AA?0?$AA?5?$AA2?$AA1?$AA?$CL?$AA1?$AA?0?$AA?5?$AA?$CC?$AA1?$AA?$CD?$AAI?$AAN?$AAD?$AA?$CC@ 00484c20     LIBCMTD:_x10fout_.obj
 0002:00010c64       ??_C@_06PGGFOGJG@1?$CDSNAN?$AA@ 00484c64     LIBCMTD:_x10fout_.obj
 0002:00010c70       ??_C@_1EG@CDDBFNOB@?$AAs?$AAt?$AAr?$AAc?$AAp?$AAy?$AA_?$AAs?$AA?$CI?$AAf?$AAo?$AAs?$AA?9?$AA?$DO?$AAm?$AAa?$AAn?$AA?0?$AA?5?$AA2?$AA1?$AA?$CL?$AA1?$AA?0?$AA?5?$AA?$CC?$AA1?$AA?$CD?$AAS?$AAN?$AAA?$AAN@ 00484c70     LIBCMTD:_x10fout_.obj
 0002:00010cb8       ??_C@_1BI@ELMAAFLN@?$AA$?$AAI?$AA1?$AA0?$AA_?$AAO?$AAU?$AAT?$AAP?$AAU?$AAT?$AA?$AA@ 00484cb8     LIBCMTD:_x10fout_.obj
 0002:00010cd0       ??_C@_1HG@HFJMHCFK@?$AAf?$AA?3?$AA?2?$AAd?$AAd?$AA?2?$AAv?$AAc?$AAt?$AAo?$AAo?$AAl?$AAs?$AA?2?$AAc?$AAr?$AAt?$AA_?$AAb?$AAl?$AAd?$AA?2?$AAs?$AAe?$AAl?$AAf?$AA_?$AAx?$AA8?$AA6?$AA?2?$AAc@ 00484cd0     LIBCMTD:_x10fout_.obj
 0002:00010d48       ??_C@_0DB@KIKNCIEC@f?3?2dd?2vctools?2crt_bld?2self_x86?2c@ 00484d48     LIBCMTD:osfinfo.obj
 0002:00010d7c       ??_C@_1BO@EMBOBGKE@?$AA_?$AAg?$AAe?$AAt?$AA_?$AAo?$AAs?$AAf?$AAh?$AAa?$AAn?$AAd?$AAl?$AAe?$AA?$AA@ 00484d7c     LIBCMTD:osfinfo.obj
 0002:00010da0       ??_C@_1GC@MLKLDJJG@?$AAf?$AA?3?$AA?2?$AAd?$AAd?$AA?2?$AAv?$AAc?$AAt?$AAo?$AAo?$AAl?$AAs?$AA?2?$AAc?$AAr?$AAt?$AA_?$AAb?$AAl?$AAd?$AA?2?$AAs?$AAe?$AAl?$AAf?$AA_?$AAx?$AA8?$AA6?$AA?2?$AAc@ 00484da0     LIBCMTD:osfinfo.obj
 0002:00010e04       ??_C@_1BA@NGNGNDEP@?$AA_?$AAc?$AAp?$AAu?$AAt?$AAw?$AAs?$AA?$AA@ 00484e04     LIBCMTD:putwch.obj
 0002:00010e18       ??_C@_1GA@NKLOJFIJ@?$AAf?$AA?3?$AA?2?$AAd?$AAd?$AA?2?$AAv?$AAc?$AAt?$AAo?$AAo?$AAl?$AAs?$AA?2?$AAc?$AAr?$AAt?$AA_?$AAb?$AAl?$AAd?$AA?2?$AAs?$AAe?$AAl?$AAf?$AA_?$AAx?$AA8?$AA6?$AA?2?$AAc@ 00484e18     LIBCMTD:putwch.obj
 0002:00010e78       ??_C@_1BM@JMKHIAHP@?$AA?$CI?$AAs?$AAt?$AAr?$AA?5?$AA?$CB?$AA?$DN?$AA?5?$AAN?$AAU?$AAL?$AAL?$AA?$CJ?$AA?$AA@ 00484e78     LIBCMTD:putwch.obj
 0002:00010e98       ??_C@_1GA@GFFDGGFH@?$AAf?$AA?3?$AA?2?$AAd?$AAd?$AA?2?$AAv?$AAc?$AAt?$AAo?$AAo?$AAl?$AAs?$AA?2?$AAc?$AAr?$AAt?$AA_?$AAb?$AAl?$AAd?$AA?2?$AAs?$AAe?$AAl?$AAf?$AA_?$AAx?$AA8?$AA6?$AA?2?$AAc@ 00484e98     LIBCMTD:mbtowc.obj
 0002:00010ef8       ??_C@_1NC@EINCOKCO@?$AA_?$AAl?$AAo?$AAc?$AA_?$AAu?$AAp?$AAd?$AAa?$AAt?$AAe?$AA?4?$AAG?$AAe?$AAt?$AAL?$AAo?$AAc?$AAa?$AAl?$AAe?$AAT?$AA?$CI?$AA?$CJ?$AA?9?$AA?$DO?$AAl?$AAo?$AAc?$AAi?$AAn?$AAf@ 00484ef8     LIBCMTD:mbtowc.obj
 0002:00010fcc       ??_C@_0DB@OLNNDFNH@f?3?2dd?2vctools?2crt_bld?2self_x86?2c@ 00484fcc     LIBCMTD:_sftbuf.obj
 0002:00011000       ??_C@_1GC@DGAFOCMO@?$AAf?$AA?3?$AA?2?$AAd?$AAd?$AA?2?$AAv?$AAc?$AAt?$AAo?$AAo?$AAl?$AAs?$AA?2?$AAc?$AAr?$AAt?$AA_?$AAb?$AAl?$AAd?$AA?2?$AAs?$AAe?$AAl?$AAf?$AA_?$AAx?$AA8?$AA6?$AA?2?$AAc@ 00485000     LIBCMTD:_sftbuf.obj
 0002:00011064       ??_C@_1CO@KCKAACMI@?$AAf?$AAl?$AAa?$AAg?$AA?5?$AA?$DN?$AA?$DN?$AA?5?$AA0?$AA?5?$AA?$HM?$AA?$HM?$AA?5?$AAf?$AAl?$AAa?$AAg?$AA?5?$AA?$DN?$AA?$DN?$AA?5?$AA1?$AA?$AA@ 00485064     LIBCMTD:_sftbuf.obj
 0002:00011094       ??_C@_1BO@JGFPDJCP@?$AAv?$AAp?$AAr?$AAi?$AAn?$AAt?$AAf?$AA_?$AAh?$AAe?$AAl?$AAp?$AAe?$AAr?$AA?$AA@ 00485094     LIBCMTD:vprintf.obj
 0002:000110b8       ??_C@_1GC@DHFFJKMC@?$AAf?$AA?3?$AA?2?$AAd?$AAd?$AA?2?$AAv?$AAc?$AAt?$AAo?$AAo?$AAl?$AAs?$AA?2?$AAc?$AAr?$AAt?$AA_?$AAb?$AAl?$AAd?$AA?2?$AAs?$AAe?$AAl?$AAf?$AA_?$AAx?$AA8?$AA6?$AA?2?$AAc@ 004850b8     LIBCMTD:vprintf.obj
 0002:00011120       ??_C@_1FE@CEHLKAHD@?$AAi?$AAb?$AAa?$AAs?$AAe?$AA?5?$AA?$DN?$AA?$DN?$AA?5?$AA0?$AA?5?$AA?$HM?$AA?$HM?$AA?5?$AA?$CI?$AA2?$AA?5?$AA?$DM?$AA?$DN?$AA?5?$AAi?$AAb?$AAa?$AAs?$AAe?$AA?5?$AA?$CG?$AA?$CG?$AA?5?$AAi?$AAb?$AAa@ 00485120     LIBCMTD:strtol.obj
 0002:00011174       ??_C@_1BA@LOLAMAJG@?$AAs?$AAt?$AAr?$AAt?$AAo?$AAx?$AAl?$AA?$AA@ 00485174     LIBCMTD:strtol.obj
 0002:00011188       ??_C@_1GA@IPHKKOEI@?$AAf?$AA?3?$AA?2?$AAd?$AAd?$AA?2?$AAv?$AAc?$AAt?$AAo?$AAo?$AAl?$AAs?$AA?2?$AAc?$AAr?$AAt?$AA_?$AAb?$AAl?$AAd?$AA?2?$AAs?$AAe?$AAl?$AAf?$AA_?$AAx?$AA8?$AA6?$AA?2?$AAc@ 00485188     LIBCMTD:strtol.obj
 0002:000111e8       ??_C@_1BK@LAOAACLJ@?$AAn?$AAp?$AAt?$AAr?$AA?5?$AA?$CB?$AA?$DN?$AA?5?$AAN?$AAU?$AAL?$AAL?$AA?$AA@ 004851e8     LIBCMTD:strtol.obj
 0002:00011204       ??_C@_1BK@ONMFGLDB@?$AA_?$AAw?$AAo?$AAu?$AAt?$AAp?$AAu?$AAt?$AA_?$AAs?$AA_?$AAl?$AA?$AA@ 00485204     LIBCMTD:woutputs.obj
 0002:00011220       ??_C@_1BK@GDEKGMNC@?$AA_?$AAw?$AAo?$AAu?$AAt?$AAp?$AAu?$AAt?$AA_?$AAp?$AA_?$AAl?$AA?$AA@ 00485220     LIBCMTD:woutputp.obj
 0002:0001123c       ??_C@_1O@HJNPHHHB@?$AAf?$AAp?$AAu?$AAt?$AAw?$AAc?$AA?$AA@ 0048523c     LIBCMTD:fputwc.obj
 0002:00011250       ??_C@_1GA@BJIGKGEA@?$AAf?$AA?3?$AA?2?$AAd?$AAd?$AA?2?$AAv?$AAc?$AAt?$AAo?$AAo?$AAl?$AAs?$AA?2?$AAc?$AAr?$AAt?$AA_?$AAb?$AAl?$AAd?$AA?2?$AAs?$AAe?$AAl?$AAf?$AA_?$AAx?$AA8?$AA6?$AA?2?$AAc@ 00485250     LIBCMTD:fputwc.obj
 0002:000112b0       ??_C@_0DC@IHGBBJOH@f?3?2dd?2vctools?2crt_bld?2self_x86?2c@ 004852b0     LIBCMTD:convrtcp.obj
 0002:000112e4       ___dnames                  004852e4     LIBCMTD:timeset.obj
 0002:000112fc       ___mnames                  004852fc     LIBCMTD:timeset.obj
 0002:00011324       ??_C@_1BM@FIMHBHEB@?$AA_?$AAg?$AAe?$AAt?$AA_?$AAd?$AAa?$AAy?$AAl?$AAi?$AAg?$AAh?$AAt?$AA?$AA@ 00485324     LIBCMTD:timeset.obj
 0002:00011340       ??_C@_1GC@NEGFAKA@?$AAf?$AA?3?$AA?2?$AAd?$AAd?$AA?2?$AAv?$AAc?$AAt?$AAo?$AAo?$AAl?$AAs?$AA?2?$AAc?$AAr?$AAt?$AA_?$AAb?$AAl?$AAd?$AA?2?$AAs?$AAe?$AAl?$AAf?$AA_?$AAx?$AA8?$AA6?$AA?2?$AAc@ 00485340     LIBCMTD:timeset.obj
 0002:000113a4       ??_C@_1CI@MKJEHFPG@?$AA?$CI?$AA_?$AAD?$AAa?$AAy?$AAl?$AAi?$AAg?$AAh?$AAt?$AA?5?$AA?$CB?$AA?$DN?$AA?5?$AAN?$AAU?$AAL?$AAL?$AA?$CJ?$AA?$AA@ 004853a4     LIBCMTD:timeset.obj
 0002:000113cc       ??_C@_1BK@EMODDHEE@?$AA_?$AAg?$AAe?$AAt?$AA_?$AAd?$AAs?$AAt?$AAb?$AAi?$AAa?$AAs?$AA?$AA@ 004853cc     LIBCMTD:timeset.obj
 0002:000113e8       ??_C@_1EC@PKDJPAAB@?$AA?$CI?$AA_?$AAD?$AAa?$AAy?$AAl?$AAi?$AAg?$AAh?$AAt?$AA_?$AAs?$AAa?$AAv?$AAi?$AAn?$AAg?$AAs?$AA_?$AAb?$AAi?$AAa?$AAs?$AA?5?$AA?$CB?$AA?$DN?$AA?5?$AAN?$AAU?$AAL?$AAL?$AA?$CJ@ 004853e8     LIBCMTD:timeset.obj
 0002:0001142c       ??_C@_1BM@MGEAKPEJ@?$AA_?$AAg?$AAe?$AAt?$AA_?$AAt?$AAi?$AAm?$AAe?$AAz?$AAo?$AAn?$AAe?$AA?$AA@ 0048542c     LIBCMTD:timeset.obj
 0002:00011448       ??_C@_1CI@PODJJGAL@?$AA?$CI?$AA_?$AAT?$AAi?$AAm?$AAe?$AAz?$AAo?$AAn?$AAe?$AA?5?$AA?$CB?$AA?$DN?$AA?5?$AAN?$AAU?$AAL?$AAL?$AA?$CJ?$AA?$AA@ 00485448     LIBCMTD:timeset.obj
 0002:00011470       ??_C@_1DG@HLGKANIP@?$AA_?$AAI?$AAn?$AAd?$AAe?$AAx?$AA?5?$AA?$DN?$AA?$DN?$AA?5?$AA0?$AA?5?$AA?$HM?$AA?$HM?$AA?5?$AA_?$AAI?$AAn?$AAd?$AAe?$AAx?$AA?5?$AA?$DN?$AA?$DN?$AA?5?$AA1?$AA?$AA@ 00485470     LIBCMTD:timeset.obj
 0002:000114a8       ??_C@_1CK@GBKHKEI@?$AA_?$AAR?$AAe?$AAt?$AAu?$AAr?$AAn?$AAV?$AAa?$AAl?$AAu?$AAe?$AA?5?$AA?$CB?$AA?$DN?$AA?5?$AAN?$AAU?$AAL?$AAL?$AA?$AA@ 004854a8     LIBCMTD:timeset.obj
 0002:000114d4       ??_C@_1BI@BHCKCCFA@?$AA_?$AAg?$AAe?$AAt?$AA_?$AAt?$AAz?$AAn?$AAa?$AAm?$AAe?$AA?$AA@ 004854d4     LIBCMTD:timeset.obj
 0002:000114f0       ??_C@_1KA@POFLNEC@?$AA?$CI?$AA_?$AAB?$AAu?$AAf?$AAf?$AAe?$AAr?$AA?5?$AA?$CB?$AA?$DN?$AA?5?$AAN?$AAU?$AAL?$AAL?$AA?5?$AA?$CG?$AA?$CG?$AA?5?$AA_?$AAS?$AAi?$AAz?$AAe?$AAI?$AAn?$AAB?$AAy?$AAt?$AAe?$AAs@ 004854f0     LIBCMTD:timeset.obj
 0002:00011590       ??_C@_1EA@GEPBEDLJ@?$AAs?$AAt?$AAr?$AAn?$AAc?$AAp?$AAy?$AA_?$AAs?$AA?$CI?$AAt?$AAz?$AAn?$AAa?$AAm?$AAe?$AA?$FL?$AA1?$AA?$FN?$AA?0?$AA?5?$AA6?$AA4?$AA?0?$AA?5?$AAT?$AAZ?$AA?0?$AA?5?$AA3?$AA?$CJ?$AA?$AA@ 00485590     LIBCMTD:tzset.obj
 0002:000115d0       ??_C@_1EA@FIJBKALB@?$AAs?$AAt?$AAr?$AAn?$AAc?$AAp?$AAy?$AA_?$AAs?$AA?$CI?$AAt?$AAz?$AAn?$AAa?$AAm?$AAe?$AA?$FL?$AA0?$AA?$FN?$AA?0?$AA?5?$AA6?$AA4?$AA?0?$AA?5?$AAT?$AAZ?$AA?0?$AA?5?$AA3?$AA?$CJ?$AA?$AA@ 004855d0     LIBCMTD:tzset.obj
 0002:00011610       ??_C@_1EK@MCAIMDPB@?$AAs?$AAt?$AAr?$AAc?$AAp?$AAy?$AA_?$AAs?$AA?$CI?$AAl?$AAa?$AAs?$AAt?$AAT?$AAZ?$AA?0?$AA?5?$AAs?$AAt?$AAr?$AAl?$AAe?$AAn?$AA?$CI?$AAT?$AAZ?$AA?$CJ?$AA?5?$AA?$CL?$AA?5?$AA1?$AA?0@ 00485610     LIBCMTD:tzset.obj
 0002:0001165c       ??_C@_0CP@FODJBIFF@f?3?2dd?2vctools?2crt_bld?2self_x86?2c@ 0048565c     LIBCMTD:tzset.obj
 0002:0001168c       ??_C@_02CLFPBFFP@TZ?$AA@   0048568c     LIBCMTD:tzset.obj
 0002:00011690       ??_C@_1CO@IMMOMMCB@?$AA_?$AAg?$AAe?$AAt?$AA_?$AAd?$AAs?$AAt?$AAb?$AAi?$AAa?$AAs?$AA?$CI?$AA?$CG?$AAd?$AAs?$AAt?$AAb?$AAi?$AAa?$AAs?$AA?$CJ?$AA?$AA@ 00485690     LIBCMTD:tzset.obj
 0002:000116c0       ??_C@_1DC@MEHEMOPB@?$AA_?$AAg?$AAe?$AAt?$AA_?$AAd?$AAa?$AAy?$AAl?$AAi?$AAg?$AAh?$AAt?$AA?$CI?$AA?$CG?$AAd?$AAa?$AAy?$AAl?$AAi?$AAg?$AAh?$AAt?$AA?$CJ?$AA?$AA@ 004856c0     LIBCMTD:tzset.obj
 0002:000116f4       ??_C@_1DC@CMKCHHFC@?$AA_?$AAg?$AAe?$AAt?$AA_?$AAt?$AAi?$AAm?$AAe?$AAz?$AAo?$AAn?$AAe?$AA?$CI?$AA?$CG?$AAt?$AAi?$AAm?$AAe?$AAz?$AAo?$AAn?$AAe?$AA?$CJ?$AA?$AA@ 004856f4     LIBCMTD:tzset.obj
 0002:00011728       ??_C@_1BM@IIODHMJC@?$AA_?$AAt?$AAz?$AAs?$AAe?$AAt?$AA_?$AAn?$AAo?$AAl?$AAo?$AAc?$AAk?$AA?$AA@ 00485728     LIBCMTD:tzset.obj
 0002:00011748       ??_C@_1FO@MLHAIHAB@?$AAf?$AA?3?$AA?2?$AAd?$AAd?$AA?2?$AAv?$AAc?$AAt?$AAo?$AAo?$AAl?$AAs?$AA?2?$AAc?$AAr?$AAt?$AA_?$AAb?$AAl?$AAd?$AA?2?$AAs?$AAe?$AAl?$AAf?$AA_?$AAx?$AA8?$AA6?$AA?2?$AAc@ 00485748     LIBCMTD:tzset.obj
 0002:000117a8       ??_C@_1CA@GOLIIEDM@?$AA_?$AAi?$AAs?$AAi?$AAn?$AAd?$AAs?$AAt?$AA_?$AAn?$AAo?$AAl?$AAo?$AAc?$AAk?$AA?$AA@ 004857a8     LIBCMTD:tzset.obj
 0002:000117c8       ??_C@_1BA@GOCKIDGO@?$AAc?$AAv?$AAt?$AAd?$AAa?$AAt?$AAe?$AA?$AA@ 004857c8     LIBCMTD:tzset.obj
 0002:000117d8       ??_C@_1BG@GLLONOEH@?$AA_?$AAs?$AAt?$AAr?$AAi?$AAc?$AAm?$AAp?$AA_?$AAl?$AA?$AA@ 004857d8     LIBCMTD:stricmp.obj
 0002:000117f0       ??_C@_1GC@OILHAOLL@?$AAf?$AA?3?$AA?2?$AAd?$AAd?$AA?2?$AAv?$AAc?$AAt?$AAo?$AAo?$AAl?$AAs?$AA?2?$AAc?$AAr?$AAt?$AA_?$AAb?$AAl?$AAd?$AA?2?$AAs?$AAe?$AAl?$AAf?$AA_?$AAx?$AA8?$AA6?$AA?2?$AAc@ 004857f0     LIBCMTD:stricmp.obj
 0002:00011854       ??_C@_1BC@JLGKKIIG@?$AA_?$AAs?$AAt?$AAr?$AAi?$AAc?$AAm?$AAp?$AA?$AA@ 00485854     LIBCMTD:stricmp.obj
 0002:00011868       ??_C@_1CC@JLPHKJPH@?$AAc?$AAo?$AAu?$AAn?$AAt?$AA?5?$AA?$DM?$AA?$DN?$AA?5?$AAI?$AAN?$AAT?$AA_?$AAM?$AAA?$AAX?$AA?$AA@ 00485868     LIBCMTD:strnicmp.obj
 0002:0001188c       ??_C@_1BI@BJLEPLEF@?$AA_?$AAs?$AAt?$AAr?$AAn?$AAi?$AAc?$AAm?$AAp?$AA_?$AAl?$AA?$AA@ 0048588c     LIBCMTD:strnicmp.obj
 0002:000118a8       ??_C@_1GE@CONPOJMA@?$AAf?$AA?3?$AA?2?$AAd?$AAd?$AA?2?$AAv?$AAc?$AAt?$AAo?$AAo?$AAl?$AAs?$AA?2?$AAc?$AAr?$AAt?$AA_?$AAb?$AAl?$AAd?$AA?2?$AAs?$AAe?$AAl?$AAf?$AA_?$AAx?$AA8?$AA6?$AA?2?$AAc@ 004858a8     LIBCMTD:strnicmp.obj
 0002:0001190c       ??_C@_1BE@BHJDFFNA@?$AA_?$AAs?$AAt?$AAr?$AAn?$AAi?$AAc?$AAm?$AAp?$AA?$AA@ 0048590c     LIBCMTD:strnicmp.obj
 0002:00011920       ??_C@_06GDENEHCP@CONIN$?$AA@ 00485920     LIBCMTD:initcon.obj
 0002:00011928       ??_C@_07GPDNMNG@CONOUT$?$AA@ 00485928     LIBCMTD:initcon.obj
 0002:00011930       ??_C@_1O@EGMJNCOI@?$AAf?$AAc?$AAl?$AAo?$AAs?$AAe?$AA?$AA@ 00485930     LIBCMTD:fclose.obj
 0002:00011940       ??_C@_1GA@KMIDAPAP@?$AAf?$AA?3?$AA?2?$AAd?$AAd?$AA?2?$AAv?$AAc?$AAt?$AAo?$AAo?$AAl?$AAs?$AA?2?$AAc?$AAr?$AAt?$AA_?$AAb?$AAl?$AAd?$AA?2?$AAs?$AAe?$AAl?$AAf?$AA_?$AAx?$AA8?$AA6?$AA?2?$AAc@ 00485940     LIBCMTD:fclose.obj
 0002:000119a0       ??_C@_1BO@JINCABEC@?$AA_?$AAf?$AAc?$AAl?$AAo?$AAs?$AAe?$AA_?$AAn?$AAo?$AAl?$AAo?$AAc?$AAk?$AA?$AA@ 004859a0     LIBCMTD:fclose.obj
 0002:000119c0       ??_C@_1DG@LNNHNFHJ@?$AA?$CI?$AA_?$AAo?$AAs?$AAf?$AAi?$AAl?$AAe?$AA?$CI?$AAf?$AAi?$AAl?$AAe?$AAd?$AAe?$AAs?$AA?$CJ?$AA?5?$AA?$CG?$AA?5?$AAF?$AAO?$AAP?$AAE?$AAN?$AA?$CJ?$AA?$AA@ 004859c0     LIBCMTD:commit.obj
 0002:000119f8       ??_C@_1BA@FLNMBBIM@?$AA_?$AAc?$AAo?$AAm?$AAm?$AAi?$AAt?$AA?$AA@ 004859f8     LIBCMTD:commit.obj
 0002:00011a08       ??_C@_1GA@BOPCOCFN@?$AAf?$AA?3?$AA?2?$AAd?$AAd?$AA?2?$AAv?$AAc?$AAt?$AAo?$AAo?$AAl?$AAs?$AA?2?$AAc?$AAr?$AAt?$AA_?$AAb?$AAl?$AAd?$AA?2?$AAs?$AAe?$AAl?$AAf?$AA_?$AAx?$AA8?$AA6?$AA?2?$AAc@ 00485a08     LIBCMTD:commit.obj
 0002:00011a68       ??_C@_1HC@KFLBHHBC@?$AA?$CI?$AAf?$AAi?$AAl?$AAe?$AAd?$AAe?$AAs?$AA?5?$AA?$DO?$AA?$DN?$AA?5?$AA0?$AA?5?$AA?$CG?$AA?$CG?$AA?5?$AA?$CI?$AAu?$AAn?$AAs?$AAi?$AAg?$AAn?$AAe?$AAd?$AA?$CJ?$AAf?$AAi?$AAl?$AAe?$AAd@ 00485a68     LIBCMTD:commit.obj
 0002:00011adc       ??_C@_1BA@BMMDEPNE@?$AAs?$AAt?$AAr?$AAt?$AAo?$AAx?$AAq?$AA?$AA@ 00485adc     LIBCMTD:strtoq.obj
 0002:00011af0       ??_C@_1GA@GIMEIKLC@?$AAf?$AA?3?$AA?2?$AAd?$AAd?$AA?2?$AAv?$AAc?$AAt?$AAo?$AAo?$AAl?$AAs?$AA?2?$AAc?$AAr?$AAt?$AA_?$AAb?$AAl?$AAd?$AA?2?$AAs?$AAe?$AAl?$AAf?$AA_?$AAx?$AA8?$AA6?$AA?2?$AAc@ 00485af0     LIBCMTD:strtoq.obj
 0002:00011b50       ??_C@_1BA@PCFLFGNC@?$AAw?$AAc?$AAs?$AAt?$AAo?$AAx?$AAl?$AA?$AA@ 00485b50     LIBCMTD:wcstol.obj
 0002:00011b60       ??_C@_1GA@CADFOND@?$AAf?$AA?3?$AA?2?$AAd?$AAd?$AA?2?$AAv?$AAc?$AAt?$AAo?$AAo?$AAl?$AAs?$AA?2?$AAc?$AAr?$AAt?$AA_?$AAb?$AAl?$AAd?$AA?2?$AAs?$AAe?$AAl?$AAf?$AA_?$AAx?$AA8?$AA6?$AA?2?$AAc@ 00485b60     LIBCMTD:wcstol.obj
 0002:00011bc0       ??_C@_1FA@HILOOCMA@?$AA?$CI?$AA_?$AAt?$AAc?$AAs?$AAn?$AAl?$AAe?$AAn?$AA?$CI?$AAo?$AAp?$AAt?$AAi?$AAo?$AAn?$AA?0?$AA?5?$AA_?$AAM?$AAA?$AAX?$AA_?$AAE?$AAN?$AAV?$AA?$CJ?$AA?5?$AA?$DM?$AA?5?$AA_?$AAM@ 00485bc0     LIBCMTD:getenv.obj
 0002:00011c10       ??_C@_1O@GMKGKCJO@?$AAg?$AAe?$AAt?$AAe?$AAn?$AAv?$AA?$AA@ 00485c10     LIBCMTD:getenv.obj
 0002:00011c20       ??_C@_1GA@IPPICGKB@?$AAf?$AA?3?$AA?2?$AAd?$AAd?$AA?2?$AAv?$AAc?$AAt?$AAo?$AAo?$AAl?$AAs?$AA?2?$AAc?$AAr?$AAt?$AA_?$AAb?$AAl?$AAd?$AA?2?$AAs?$AAe?$AAl?$AAf?$AA_?$AAx?$AA8?$AA6?$AA?2?$AAc@ 00485c20     LIBCMTD:getenv.obj
 0002:00011c80       ??_C@_1CC@FKAOHHLO@?$AA?$CI?$AAo?$AAp?$AAt?$AAi?$AAo?$AAn?$AA?5?$AA?$CB?$AA?$DN?$AA?5?$AAN?$AAU?$AAL?$AAL?$AA?$CJ?$AA?$AA@ 00485c80     LIBCMTD:getenv.obj
 0002:00011ca8       ??_C@_1GI@JBIFPFJH@?$AA_?$AAt?$AAc?$AAs?$AAn?$AAl?$AAe?$AAn?$AA?$CI?$AA?$CK?$AAs?$AAe?$AAa?$AAr?$AAc?$AAh?$AA?5?$AA?$CL?$AA?5?$AAl?$AAe?$AAn?$AAg?$AAt?$AAh?$AA?5?$AA?$CL?$AA?5?$AA1?$AA?0?$AA?5?$AA_@ 00485ca8     LIBCMTD:getenv.obj
 0002:00011d10       ??_C@_1EI@HHOBPCFK@?$AAs?$AAt?$AAr?$AAc?$AAp?$AAy?$AA_?$AAs?$AA?$CI?$AAb?$AAu?$AAf?$AAf?$AAe?$AAr?$AA?0?$AA?5?$AAs?$AAi?$AAz?$AAe?$AAI?$AAn?$AAT?$AAC?$AAh?$AAa?$AAr?$AAs?$AA?0?$AA?5?$AAs@ 00485d10     LIBCMTD:getenv.obj
 0002:00011d58       ??_C@_1JM@NLPGJJPH@?$AA?$CI?$AAb?$AAu?$AAf?$AAf?$AAe?$AAr?$AA?5?$AA?$CB?$AA?$DN?$AA?5?$AAN?$AAU?$AAL?$AAL?$AA?5?$AA?$CG?$AA?$CG?$AA?5?$AAs?$AAi?$AAz?$AAe?$AAI?$AAn?$AAT?$AAC?$AAh?$AAa?$AAr?$AAs?$AA?5@ 00485d58     LIBCMTD:getenv.obj
 0002:00011df4       ??_C@_1CC@BAJKDIIF@?$AA_?$AAg?$AAe?$AAt?$AAe?$AAn?$AAv?$AA_?$AAs?$AA_?$AAh?$AAe?$AAl?$AAp?$AAe?$AAr?$AA?$AA@ 00485df4     LIBCMTD:getenv.obj
 0002:00011e18       ??_C@_1CK@PIKDAOCL@?$AAp?$AAR?$AAe?$AAt?$AAu?$AAr?$AAn?$AAV?$AAa?$AAl?$AAu?$AAe?$AA?5?$AA?$CB?$AA?$DN?$AA?5?$AAN?$AAU?$AAL?$AAL?$AA?$AA@ 00485e18     LIBCMTD:getenv.obj
 0002:00011e44       ??_C@_1DM@GNKNEGJO@?$AAs?$AAt?$AAr?$AAc?$AAp?$AAy?$AA_?$AAs?$AA?$CI?$AA?$CK?$AAp?$AAB?$AAu?$AAf?$AAf?$AAe?$AAr?$AA?0?$AA?5?$AAs?$AAi?$AAz?$AAe?$AA?0?$AA?5?$AAs?$AAt?$AAr?$AA?$CJ?$AA?$AA@ 00485e44     LIBCMTD:getenv.obj
 0002:00011e80       ??_C@_1CA@GDBKELOE@?$AAv?$AAa?$AAr?$AAn?$AAa?$AAm?$AAe?$AA?5?$AA?$CB?$AA?$DN?$AA?5?$AAN?$AAU?$AAL?$AAL?$AA?$AA@ 00485e80     LIBCMTD:getenv.obj
 0002:00011ea0       ??_C@_1CC@KPLOPIEM@?$AA_?$AAd?$AAu?$AAp?$AAe?$AAn?$AAv?$AA_?$AAs?$AA_?$AAh?$AAe?$AAl?$AAp?$AAe?$AAr?$AA?$AA@ 00485ea0     LIBCMTD:getenv.obj
 0002:00011ec4       ??_C@_1CA@FHNFMDOJ@?$AAp?$AAB?$AAu?$AAf?$AAf?$AAe?$AAr?$AA?5?$AA?$CB?$AA?$DN?$AA?5?$AAN?$AAU?$AAL?$AAL?$AA?$AA@ 00485ec4     LIBCMTD:getenv.obj
 0002:00011ee4       ??_C@_1O@EDEJGJBM@?$AA_?$AAc?$AAl?$AAo?$AAs?$AAe?$AA?$AA@ 00485ee4     LIBCMTD:close.obj
 0002:00011ef8       ??_C@_1FO@NNGNFGFH@?$AAf?$AA?3?$AA?2?$AAd?$AAd?$AA?2?$AAv?$AAc?$AAt?$AAo?$AAo?$AAl?$AAs?$AA?2?$AAc?$AAr?$AAt?$AA_?$AAb?$AAl?$AAd?$AA?2?$AAs?$AAe?$AAl?$AAf?$AA_?$AAx?$AA8?$AA6?$AA?2?$AAc@ 00485ef8     LIBCMTD:close.obj
 0002:00011f58       ??_C@_1GE@MIMBMOF@?$AAf?$AA?3?$AA?2?$AAd?$AAd?$AA?2?$AAv?$AAc?$AAt?$AAo?$AAo?$AAl?$AAs?$AA?2?$AAc?$AAr?$AAt?$AA_?$AAb?$AAl?$AAd?$AA?2?$AAs?$AAe?$AAl?$AAf?$AA_?$AAx?$AA8?$AA6?$AA?2?$AAc@ 00485f58     LIBCMTD:_freebuf.obj
 0002:00011fbc       ??_C@_1BO@KIJENGPH@?$AAs?$AAt?$AAr?$AAe?$AAa?$AAm?$AA?5?$AA?$CB?$AA?$DN?$AA?5?$AAN?$AAU?$AAL?$AAL?$AA?$AA@ 00485fbc     LIBCMTD:_freebuf.obj
 0002:00011fdc       ??_C@_1BK@CMPKHPEC@?$AAn?$AA?5?$AA?$DM?$AA?$DN?$AA?5?$AAI?$AAN?$AAT?$AA_?$AAM?$AAA?$AAX?$AA?$AA@ 00485fdc     LIBCMTD:mbsnbico.obj
 0002:00011ff8       ??_C@_1BG@GBJNMPFA@?$AAs?$AA2?$AA?5?$AA?$CB?$AA?$DN?$AA?5?$AAN?$AAU?$AAL?$AAL?$AA?$AA@ 00485ff8     LIBCMTD:mbsnbico.obj
 0002:00012010       ??_C@_1BM@FKNNDAHH@?$AA_?$AAm?$AAb?$AAs?$AAn?$AAb?$AAi?$AAc?$AAo?$AAl?$AAl?$AA_?$AAl?$AA?$AA@ 00486010     LIBCMTD:mbsnbico.obj
 0002:00012030       ??_C@_1GE@NJHAJPKI@?$AAf?$AA?3?$AA?2?$AAd?$AAd?$AA?2?$AAv?$AAc?$AAt?$AAo?$AAo?$AAl?$AAs?$AA?2?$AAc?$AAr?$AAt?$AA_?$AAb?$AAl?$AAd?$AA?2?$AAs?$AAe?$AAl?$AAf?$AA_?$AAx?$AA8?$AA6?$AA?2?$AAc@ 00486030     LIBCMTD:mbsnbico.obj
 0002:00012094       ??_C@_1BG@MODEICJK@?$AAs?$AA1?$AA?5?$AA?$CB?$AA?$DN?$AA?5?$AAN?$AAU?$AAL?$AAL?$AA?$AA@ 00486094     LIBCMTD:mbsnbico.obj
 0002:000120ac       ??_C@_0DC@CAFDLBC@f?3?2dd?2vctools?2crt_bld?2self_x86?2c@ 004860ac     LIBCMTD:wtombenv.obj
 0002:000120e0       ??_C@_1FO@IFEMNBMO@?$AAf?$AA?3?$AA?2?$AAd?$AAd?$AA?2?$AAv?$AAc?$AAt?$AAo?$AAo?$AAl?$AAs?$AA?2?$AAc?$AAr?$AAt?$AA_?$AAb?$AAl?$AAd?$AA?2?$AAs?$AAe?$AAl?$AAf?$AA_?$AAx?$AA8?$AA6?$AA?2?$AAc@ 004860e0     LIBCMTD:a_cmp.obj
 0002:00012140       ??_C@_1HK@ELDMAMK@?$AAc?$AAc?$AAh?$AAC?$AAo?$AAu?$AAn?$AAt?$AA1?$AA?$DN?$AA?$DN?$AA0?$AA?5?$AA?$CG?$AA?$CG?$AA?5?$AAc?$AAc?$AAh?$AAC?$AAo?$AAu?$AAn?$AAt?$AA2?$AA?$DN?$AA?$DN?$AA1?$AA?5?$AA?$HM?$AA?$HM?$AA?5@ 00486140     LIBCMTD:a_cmp.obj
 0002:000121bc       ??_C@_1CC@CNADELFK@?$AA_?$AAs?$AAt?$AAr?$AAi?$AAn?$AAg?$AA2?$AA?5?$AA?$CB?$AA?$DN?$AA?5?$AAN?$AAU?$AAL?$AAL?$AA?$AA@ 004861bc     LIBCMTD:strnicol.obj
 0002:000121e0       ??_C@_1BK@IOJEBPLP@?$AA_?$AAs?$AAt?$AAr?$AAn?$AAi?$AAc?$AAo?$AAl?$AAl?$AA_?$AAl?$AA?$AA@ 004861e0     LIBCMTD:strnicol.obj
 0002:00012200       ??_C@_1GE@BDOBNJJ@?$AAf?$AA?3?$AA?2?$AAd?$AAd?$AA?2?$AAv?$AAc?$AAt?$AAo?$AAo?$AAl?$AAs?$AA?2?$AAc?$AAr?$AAt?$AA_?$AAb?$AAl?$AAd?$AA?2?$AAs?$AAe?$AAl?$AAf?$AA_?$AAx?$AA8?$AA6?$AA?2?$AAc@ 00486200     LIBCMTD:strnicol.obj
 0002:00012264       ??_C@_1CC@ICKKAGJA@?$AA_?$AAs?$AAt?$AAr?$AAi?$AAn?$AAg?$AA1?$AA?5?$AA?$CB?$AA?$DN?$AA?5?$AAN?$AAU?$AAL?$AAL?$AA?$AA@ 00486264     LIBCMTD:strnicol.obj
 0002:00012288       ??_C@_1FG@OKIAKKPK@?$AAs?$AAt?$AAr?$AAc?$AAp?$AAy?$AA_?$AAs?$AA?$CI?$AAn?$AAa?$AAm?$AAe?$AA?0?$AA?5?$AAs?$AAt?$AAr?$AAl?$AAe?$AAn?$AA?$CI?$AAo?$AAp?$AAt?$AAi?$AAo?$AAn?$AA?$CJ?$AA?5?$AA?$CL?$AA?5@ 00486288     LIBCMTD:setenv.obj
 0002:000122e0       ??_C@_1EI@GHDNAPMG@?$AA?$CI?$AA?$CC?$AAC?$AAR?$AAT?$AA?5?$AAL?$AAo?$AAg?$AAi?$AAc?$AA?5?$AAe?$AAr?$AAr?$AAo?$AAr?$AA?5?$AAd?$AAu?$AAr?$AAi?$AAn?$AAg?$AA?5?$AAs?$AAe?$AAt?$AAe?$AAn?$AAv?$AA?$CC@ 004862e0     LIBCMTD:setenv.obj
 0002:00012328       ??_C@_0DA@NHJGCDK@f?3?2dd?2vctools?2crt_bld?2self_x86?2c@ 00486328     LIBCMTD:setenv.obj
 0002:00012358       ??_C@_1FC@EEJIEIDF@?$AA_?$AAt?$AAc?$AAs?$AAn?$AAl?$AAe?$AAn?$AA?$CI?$AAe?$AAq?$AAu?$AAa?$AAl?$AA?5?$AA?$CL?$AA?5?$AA1?$AA?0?$AA?5?$AA_?$AAM?$AAA?$AAX?$AA_?$AAE?$AAN?$AAV?$AA?$CJ?$AA?5?$AA?$DM?$AA?5@ 00486358     LIBCMTD:setenv.obj
 0002:000123ac       ??_C@_1DE@EEHFNNGH@?$AAe?$AAq?$AAu?$AAa?$AAl?$AA?5?$AA?9?$AA?5?$AAo?$AAp?$AAt?$AAi?$AAo?$AAn?$AA?5?$AA?$DM?$AA?5?$AA_?$AAM?$AAA?$AAX?$AA_?$AAE?$AAN?$AAV?$AA?$AA@ 004863ac     LIBCMTD:setenv.obj
 0002:000123e0       ??_C@_1BI@CDAFOAAL@?$AA_?$AA_?$AAc?$AAr?$AAt?$AAs?$AAe?$AAt?$AAe?$AAn?$AAv?$AA?$AA@ 004863e0     LIBCMTD:setenv.obj
 0002:000123f8       ??_C@_1GA@KKPDKNLP@?$AAf?$AA?3?$AA?2?$AAd?$AAd?$AA?2?$AAv?$AAc?$AAt?$AAo?$AAo?$AAl?$AAs?$AA?2?$AAc?$AAr?$AAt?$AA_?$AAb?$AAl?$AAd?$AA?2?$AAs?$AAe?$AAl?$AAf?$AA_?$AAx?$AA8?$AA6?$AA?2?$AAc@ 004863f8     LIBCMTD:setenv.obj
 0002:00012458       ??_C@_1CA@LMBEKBDN@?$AAp?$AAo?$AAp?$AAt?$AAi?$AAo?$AAn?$AA?5?$AA?$CB?$AA?$DN?$AA?5?$AAN?$AAU?$AAL?$AAL?$AA?$AA@ 00486458     LIBCMTD:setenv.obj
 0002:00012478       ??_C@_1FK@DNFLNPD@?$AAs?$AAt?$AAr?$AAc?$AAp?$AAy?$AA_?$AAs?$AA?$CI?$AA?$CK?$AAn?$AAe?$AAw?$AAe?$AAn?$AAv?$AAp?$AAt?$AAr?$AA?0?$AA?5?$AAe?$AAn?$AAv?$AAp?$AAt?$AAr?$AAS?$AAi?$AAz?$AAe?$AA?0@ 00486478     LIBCMTD:setenv.obj
 0002:000124d4       ??_C@_1BK@ECKIJLPM@?$AAc?$AAo?$AAp?$AAy?$AA_?$AAe?$AAn?$AAv?$AAi?$AAr?$AAo?$AAn?$AA?$AA@ 004864d4     LIBCMTD:setenv.obj
 0002:000124f0       ??_C@_1BE@JKKFLIKJ@?$AA_?$AAm?$AAb?$AAs?$AAc?$AAh?$AAr?$AA_?$AAl?$AA?$AA@ 004864f0     LIBCMTD:mbschr.obj
 0002:00012508       ??_C@_1GA@GDCAGKMG@?$AAf?$AA?3?$AA?2?$AAd?$AAd?$AA?2?$AAv?$AAc?$AAt?$AAo?$AAo?$AAl?$AAs?$AA?2?$AAc?$AAr?$AAt?$AA_?$AAb?$AAl?$AAd?$AA?2?$AAs?$AAe?$AAl?$AAf?$AA_?$AAx?$AA8?$AA6?$AA?2?$AAc@ 00486508     LIBCMTD:mbschr.obj
 0002:00012568       ??_C@_1BO@JIBAMMGI@?$AAs?$AAt?$AAr?$AAi?$AAn?$AAg?$AA?5?$AA?$CB?$AA?$DN?$AA?5?$AAN?$AAU?$AAL?$AAL?$AA?$AA@ 00486568     LIBCMTD:mbschr.obj
 0002:0001258c       ??_C@_0CO@JPCIKGOF@f?3?2dd?2vctools?2crt_bld?2self_x86?2c@ 0048658c     libcpmtd:xdebug.obj
 0002:000125bc       ??_C@_0BA@JFNIOLAK@string?5too?5long?$AA@ 004865bc     libcpmtd:string.obj
 0002:000125cc       ??_C@_0BI@CFPLBAOH@invalid?5string?5position?$AA@ 004865cc     libcpmtd:string.obj
 0002:000125e8       ??_7out_of_range@std@@6B@  004865e8     libcpmtd:string.obj
 0002:000125f0       ??_C@_0BI@ILCMCLF@invalid?5string?5argument?$AA@ 004865f0     libcpmtd:string.obj
 0002:0001260c       ??_7invalid_argument@std@@6B@ 0048660c     libcpmtd:string.obj
 0002:00012618       ??_C@_1FO@BEGKGBFG@?$AAf?$AA?3?$AA?2?$AAd?$AAd?$AA?2?$AAv?$AAc?$AAt?$AAo?$AAo?$AAl?$AAs?$AA?2?$AAc?$AAr?$AAt?$AA_?$AAb?$AAl?$AAd?$AA?2?$AAs?$AAe?$AAl?$AAf?$AA_?$AAx?$AA8?$AA6?$AA?2?$AAc@ 00486618     libcpmtd:string.obj
 0002:00012678       ??_C@_07CIFAGBMG@unknown?$AA@ 00486678     libcpmtd:stdthrow.obj
 0002:00012680       ??_C@_0M@LLHBPFNE@exception?3?5?$AA@ 00486680     libcpmtd:stdthrow.obj
 0002:0001268c       ??_C@_1M@LIIFKKLB@?$AAf?$AAp?$AAu?$AAt?$AAs?$AA?$AA@ 0048668c     LIBCMTD:fputs.obj
 0002:00012698       ??_C@_1FO@FFFEAAEI@?$AAf?$AA?3?$AA?2?$AAd?$AAd?$AA?2?$AAv?$AAc?$AAt?$AAo?$AAo?$AAl?$AAs?$AA?2?$AAc?$AAr?$AAt?$AA_?$AAb?$AAl?$AAd?$AA?2?$AAs?$AAe?$AAl?$AAf?$AA_?$AAx?$AA8?$AA6?$AA?2?$AAc@ 00486698     LIBCMTD:fputs.obj
 0002:000126f8       ??_C@_1O@KLNKIMAP@?$AAf?$AAw?$AAr?$AAi?$AAt?$AAe?$AA?$AA@ 004866f8     LIBCMTD:fwrite.obj
 0002:00012708       ??_C@_1GA@DOFNKKGD@?$AAf?$AA?3?$AA?2?$AAd?$AAd?$AA?2?$AAv?$AAc?$AAt?$AAo?$AAo?$AAl?$AAs?$AA?2?$AAc?$AAr?$AAt?$AA_?$AAb?$AAl?$AAd?$AA?2?$AAs?$AAe?$AAl?$AAf?$AA_?$AAx?$AA8?$AA6?$AA?2?$AAc@ 00486708     LIBCMTD:fwrite.obj
 0002:00012768       ??_C@_1LG@DCNDJCHK@?$AA?$CI?$AA?$CC?$AAI?$AAn?$AAc?$AAo?$AAn?$AAs?$AAi?$AAs?$AAt?$AAe?$AAn?$AAt?$AA?5?$AAS?$AAt?$AAr?$AAe?$AAa?$AAm?$AA?5?$AAC?$AAo?$AAu?$AAn?$AAt?$AA?4?$AA?5?$AAF?$AAl?$AAu@ 00486768     LIBCMTD:fwrite.obj
 0002:00012820       ??_C@_1DC@FHEPNAPF@?$AAn?$AAu?$AAm?$AA?5?$AA?$DM?$AA?$DN?$AA?5?$AA?$CI?$AAS?$AAI?$AAZ?$AAE?$AA_?$AAM?$AAA?$AAX?$AA?5?$AA?1?$AA?5?$AAs?$AAi?$AAz?$AAe?$AA?$CJ?$AA?$AA@ 00486820     LIBCMTD:fwrite.obj
 0002:00012854       ??_C@_1CC@CGFEEBMC@?$AA?$CI?$AAb?$AAu?$AAf?$AAf?$AAe?$AAr?$AA?5?$AA?$CB?$AA?$DN?$AA?5?$AAN?$AAU?$AAL?$AAL?$AA?$CJ?$AA?$AA@ 00486854     LIBCMTD:fwrite.obj
 0002:00012878       ??_C@_1BO@JGPKCBCE@?$AA_?$AAf?$AAw?$AAr?$AAi?$AAt?$AAe?$AA_?$AAn?$AAo?$AAl?$AAo?$AAc?$AAk?$AA?$AA@ 00486878     LIBCMTD:fwrite.obj
 0002:00012898       __load_config_used         00486898     LIBCMTD:loadcfg.obj
 0002:00015a94       ??_R4bad_alloc@std@@6B@    00489a94     intro.obj
 0002:00015aac       ??_R3bad_alloc@std@@8      00489aac     intro.obj
 0002:00015ac0       ??_R2bad_alloc@std@@8      00489ac0     intro.obj
 0002:00015acc       ??_R1A@?0A@EA@bad_alloc@std@@8 00489acc     intro.obj
 0002:00015af0       ??_R1A@?0A@EA@exception@std@@8 00489af0     intro.obj
 0002:00015b14       ??_R3exception@std@@8      00489b14     intro.obj
 0002:00015b28       ??_R2exception@std@@8      00489b28     intro.obj
 0002:00015b30       ??_R4length_error@std@@6B@ 00489b30     Maze.obj
 0002:00015b48       ??_R3length_error@std@@8   00489b48     Maze.obj
 0002:00015b5c       ??_R2length_error@std@@8   00489b5c     Maze.obj
 0002:00015b6c       ??_R1A@?0A@EA@length_error@std@@8 00489b6c     Maze.obj
 0002:00015b90       ??_R1A@?0A@EA@logic_error@std@@8 00489b90     Maze.obj
 0002:00015bb4       ??_R3logic_error@std@@8    00489bb4     Maze.obj
 0002:00015bc8       ??_R2logic_error@std@@8    00489bc8     Maze.obj
 0002:00015bd4       ??_R4logic_error@std@@6B@  00489bd4     Maze.obj
 0002:00015bec       ??_R4type_info@@6B@        00489bec     LIBCMTD:typinfo.obj
 0002:00015c00       ??_R3type_info@@8          00489c00     LIBCMTD:typinfo.obj
 0002:00015c10       ??_R2type_info@@8          00489c10     LIBCMTD:typinfo.obj
 0002:00015c18       ??_R1A@?0A@EA@type_info@@8 00489c18     LIBCMTD:typinfo.obj
 0002:00015c34       ??_R4exception@std@@6B@    00489c34     LIBCMTD:stdexcpt.obj
 0002:00015c48       ??_R4bad_cast@std@@6B@     00489c48     LIBCMTD:stdexcpt.obj
 0002:00015c5c       ??_R3bad_cast@std@@8       00489c5c     LIBCMTD:stdexcpt.obj
 0002:00015c6c       ??_R2bad_cast@std@@8       00489c6c     LIBCMTD:stdexcpt.obj
 0002:00015c78       ??_R1A@?0A@EA@bad_cast@std@@8 00489c78     LIBCMTD:stdexcpt.obj
 0002:00015c94       ??_R4bad_typeid@std@@6B@   00489c94     LIBCMTD:stdexcpt.obj
 0002:00015ca8       ??_R3bad_typeid@std@@8     00489ca8     LIBCMTD:stdexcpt.obj
 0002:00015cb8       ??_R2bad_typeid@std@@8     00489cb8     LIBCMTD:stdexcpt.obj
 0002:00015cc4       ??_R1A@?0A@EA@bad_typeid@std@@8 00489cc4     LIBCMTD:stdexcpt.obj
 0002:00015ce0       ??_R4__non_rtti_object@std@@6B@ 00489ce0     LIBCMTD:stdexcpt.obj
 0002:00015cf4       ??_R3__non_rtti_object@std@@8 00489cf4     LIBCMTD:stdexcpt.obj
 0002:00015d04       ??_R2__non_rtti_object@std@@8 00489d04     LIBCMTD:stdexcpt.obj
 0002:00015d14       ??_R1A@?0A@EA@__non_rtti_object@std@@8 00489d14     LIBCMTD:stdexcpt.obj
 0002:00015d30       ??_R4bad_exception@std@@6B@ 00489d30     LIBCMTD:frame.obj
 0002:00015d44       ??_R3bad_exception@std@@8  00489d44     LIBCMTD:frame.obj
 0002:00015d54       ??_R2bad_exception@std@@8  00489d54     LIBCMTD:frame.obj
 0002:00015d60       ??_R1A@?0A@EA@bad_exception@std@@8 00489d60     LIBCMTD:frame.obj
 0002:00015d7c       ??_R4out_of_range@std@@6B@ 00489d7c     libcpmtd:string.obj
 0002:00015d90       ??_R3out_of_range@std@@8   00489d90     libcpmtd:string.obj
 0002:00015da0       ??_R2out_of_range@std@@8   00489da0     libcpmtd:string.obj
 0002:00015db0       ??_R1A@?0A@EA@out_of_range@std@@8 00489db0     libcpmtd:string.obj
 0002:00015dcc       ??_R4invalid_argument@std@@6B@ 00489dcc     libcpmtd:string.obj
 0002:00015de0       ??_R3invalid_argument@std@@8 00489de0     libcpmtd:string.obj
 0002:00015df0       ??_R2invalid_argument@std@@8 00489df0     libcpmtd:string.obj
 0002:00015e00       ??_R1A@?0A@EA@invalid_argument@std@@8 00489e00     libcpmtd:string.obj
 0002:00015fa0       ___safe_se_handler_table   00489fa0     <linker-defined>
 0002:000161f0       ___rtc_iaa                 0048a1f0     LIBCMTD:_initsect_.obj
 0002:00016410       ___rtc_izz                 0048a410     LIBCMTD:_initsect_.obj
 0002:00016514       ___rtc_taa                 0048a514     LIBCMTD:_initsect_.obj
 0002:00016734       ___rtc_tzz                 0048a734     LIBCMTD:_initsect_.obj
 0002:0001694c       __TI2?AVbad_alloc@std@@    0048a94c     intro.obj
 0002:00016960       __CTA2?AVbad_alloc@std@@   0048a960     intro.obj
 0002:00016970       __CT??_R0?AVbad_alloc@std@@@8??0bad_alloc@std@@QAE@ABV01@@Z12 0048a970     intro.obj
 0002:00016990       __CT??_R0?AVexception@std@@@8??0exception@std@@QAE@ABV01@@Z12 0048a990     intro.obj
 0002:00016e2c       __TI3?AVlength_error@std@@ 0048ae2c     Maze.obj
 0002:00016e70       __CTA3?AVlength_error@std@@ 0048ae70     Maze.obj
 0002:00016e84       __CT??_R0?AVlength_error@std@@@8??0length_error@std@@QAE@ABV01@@Z44 0048ae84     Maze.obj
 0002:00016ea4       __CT??_R0?AVlogic_error@std@@@8??0logic_error@std@@QAE@ABV01@@Z44 0048aea4     Maze.obj
 0002:000178ec       __TI2?AVbad_exception@std@@ 0048b8ec     LIBCMTD:frame.obj
 0002:000178fc       __CTA2?AVbad_exception@std@@ 0048b8fc     LIBCMTD:frame.obj
 0002:00017908       __CT??_R0?AVbad_exception@std@@@8??0bad_exception@std@@QAE@ABV01@@Z12 0048b908     LIBCMTD:frame.obj
 0002:00018508       __TI3?AVout_of_range@std@@ 0048c508     libcpmtd:string.obj
 0002:00018544       __CTA3?AVout_of_range@std@@ 0048c544     libcpmtd:string.obj
 0002:00018554       __CT??_R0?AVout_of_range@std@@@8??0out_of_range@std@@QAE@ABV01@@Z44 0048c554     libcpmtd:string.obj
 0002:00018570       __TI3?AVinvalid_argument@std@@ 0048c570     libcpmtd:string.obj
 0002:000185ac       __CTA3?AVinvalid_argument@std@@ 0048c5ac     libcpmtd:string.obj
 0002:000185bc       __CT??_R0?AVinvalid_argument@std@@@8??0invalid_argument@std@@QAE@ABV01@@Z44 0048c5bc     libcpmtd:string.obj
 0003:00000004       ??_R0?AVbad_alloc@std@@@8  0048d004     intro.obj
 0003:00000028       ??_R0?AVexception@std@@@8  0048d028     intro.obj
 0003:000000b0       ??_R0?AVlength_error@std@@@8 0048d0b0     Maze.obj
 0003:000000d8       ??_R0?AVlogic_error@std@@@8 0048d0d8     Maze.obj
 0003:000011b0       _CLSID_XACTEngine          0048e1b0     dxguid:dxguid.obj
 0003:000011c0       _CLSID_XACTAuditionEngine  0048e1c0     dxguid:dxguid.obj
 0003:000011d0       _CLSID_XACTDebugEngine     0048e1d0     dxguid:dxguid.obj
 0003:000011e0       _IID_IXACT3Engine          0048e1e0     dxguid:dxguid.obj
 0003:000011f0       _CLSID_XAudio2             0048e1f0     dxguid:dxguid.obj
 0003:00001200       _CLSID_XAudio2_Debug       0048e200     dxguid:dxguid.obj
 0003:00001210       _IID_IXAudio2              0048e210     dxguid:dxguid.obj
 0003:00001220       _CLSID_AudioVolumeMeter    0048e220     dxguid:dxguid.obj
 0003:00001230       _CLSID_AudioVolumeMeter_Debug 0048e230     dxguid:dxguid.obj
 0003:00001240       _CLSID_AudioReverb         0048e240     dxguid:dxguid.obj
 0003:00001250       _CLSID_AudioReverb_Debug   0048e250     dxguid:dxguid.obj
 0003:00001260       __fltused                  0048e260     LIBCMTD:_fpinit_.obj
 0003:00001264       __ldused                   0048e264     LIBCMTD:_fpinit_.obj
 0003:00001270       ___security_cookie         0048e270     LIBCMTD:gs_cookie.obj
 0003:00001274       ___security_cookie_complement 0048e274     LIBCMTD:gs_cookie.obj
 0003:00001280       ??_R0?AVtype_info@@@8      0048e280     LIBCMTD:typinfo.obj
 0003:0000129c       ??_R0?AVbad_cast@std@@@8   0048e29c     LIBCMTD:stdexcpt.obj
 0003:000012b8       ??_R0?AVbad_typeid@std@@@8 0048e2b8     LIBCMTD:stdexcpt.obj
 0003:000012d8       ??_R0?AV__non_rtti_object@std@@@8 0048e2d8     LIBCMTD:stdexcpt.obj
 0003:00001304       ___app_type                0048e304     LIBCMTD:wincrt0.obj
 0003:00001308       __cfltcvt_tab              0048e308     LIBCMTD:cmiscdat.obj
 0003:00001330       ?_RTC_ErrorLevels@@3PAHA   0048e330     LIBCMTD:_error_.obj
 0003:00001354       ??_R0?AVbad_exception@std@@@8 0048e354     LIBCMTD:frame.obj
 0003:00001380       ___flsindex                0048e380     LIBCMTD:tidtable.obj
 0003:00001384       ___getvalueindex           0048e384     LIBCMTD:tidtable.obj
 0003:000014a8       __crtDbgFlag               0048e4a8     LIBCMTD:dbgheap.obj
 0003:000014ac       ___crtDebugFillThreshold   0048e4ac     LIBCMTD:dbgheap.obj
 0003:000014b4       __crtBreakAlloc            0048e4b4     LIBCMTD:dbgheap.obj
 0003:000014bc       ___nullstring              0048e4bc     LIBCMTD:output.obj
 0003:000014c0       ___wnullstring             0048e4c0     LIBCMTD:output.obj
 0003:00001644       __pfnAllocHook             0048e644     LIBCMTD:dbghook.obj
 0003:00001648       __crtAssertBusy            0048e648     LIBCMTD:dbgrptt.obj
 0003:0000164c       __CrtDbgMode               0048e64c     LIBCMTD:dbgrptt.obj
 0003:00001658       __CrtDbgFile               0048e658     LIBCMTD:dbgrptt.obj
 0003:00001664       __aexit_rtn                0048e664     LIBCMTD:crt0dat.obj
 0003:00001670       __First_FPE_Indx           0048e670     LIBCMTD:winxfltr.obj
 0003:00001674       __Num_FPE                  0048e674     LIBCMTD:winxfltr.obj
 0003:00001678       __XcptActTabSize           0048e678     LIBCMTD:winxfltr.obj
 0003:0000167c       __XcptActTabCount          0048e67c     LIBCMTD:winxfltr.obj
 0003:00001680       ___badioinfo               0048e680     LIBCMTD:ioinit.obj
 0003:000016c0       __amblksiz                 0048e6c0     LIBCMTD:heapinit.obj
 0003:00001780       ___initialmbcinfo          0048e780     LIBCMTD:mbctype.obj
 0003:000019a0       __mbctype                  0048e9a0     LIBCMTD:mbctype.obj
 0003:00001aa8       __mbcasemap                0048eaa8     LIBCMTD:mbctype.obj
 0003:00001ba8       ___ptmbcinfo               0048eba8     LIBCMTD:mbctype.obj
 0003:00001ca4       ___globallocalestatus      0048eca4     LIBCMTD:glstatus.obj
 0003:00001ca8       ___clocalestr              0048eca8     LIBCMTD:nlsdata2.obj
 0003:00001cb0       ___initiallocinfo          0048ecb0     LIBCMTD:nlsdata2.obj
 0003:00001d88       ___ptlocinfo               0048ed88     LIBCMTD:nlsdata2.obj
 0003:00001d8c       ___lc_clike                0048ed8c     LIBCMTD:nlsdata2.obj
 0003:00001d90       ___initiallocalestructinfo 0048ed90     LIBCMTD:nlsdata2.obj
 0003:00001da8       __NLG_Destination          0048eda8     LIBCMTD:exsup.obj
 0003:00001db8       ___abort_behavior          0048edb8     LIBCMTD:abort.obj
 0003:00001dc0       __iob                      0048edc0     LIBCMTD:_file.obj
 0003:00002040       __matherr_flag             0048f040     LIBCMTD:_matherr_.obj
 0003:00002130       __d_inf                    0048f130     LIBCMTD:_util_.obj
 0003:00002138       __d_ind                    0048f138     LIBCMTD:_util_.obj
 0003:00002140       __d_max                    0048f140     LIBCMTD:_util_.obj
 0003:00002148       __d_min                    0048f148     LIBCMTD:_util_.obj
 0003:00002150       __d_mzero                  0048f150     LIBCMTD:_util_.obj
 0003:00002174       __pctype                   0048f174     LIBCMTD:ctype.obj
 0003:00002178       __pwctype                  0048f178     LIBCMTD:ctype.obj
 0003:00002180       ___lc_time_c               0048f180     LIBCMTD:strftime.obj
 0003:00002238       ___lc_time_curr            0048f238     LIBCMTD:strftime.obj
 0003:0000223c       ___lconv_static_decimal    0048f23c     LIBCMTD:lconv.obj
 0003:00002240       ___lconv_c                 0048f240     LIBCMTD:lconv.obj
 0003:00002270       ___lconv                   0048f270     LIBCMTD:lconv.obj
 0003:00002274       ___mb_cur_max              0048f274     LIBCMTD:nlsdata1.obj
 0003:00002278       ___decimal_point           0048f278     LIBCMTD:nlsdata1.obj
 0003:0000227c       ___decimal_point_length    0048f27c     LIBCMTD:nlsdata1.obj
 0003:000022b8       __timezone                 0048f2b8     LIBCMTD:timeset.obj
 0003:000022bc       __daylight                 0048f2bc     LIBCMTD:timeset.obj
 0003:000022c0       __dstbias                  0048f2c0     LIBCMTD:timeset.obj
 0003:00002348       __tzname                   0048f348     LIBCMTD:timeset.obj
 0003:00002368       __pow10pos                 0048f368     LIBCMTD:_constpow_.obj
 0003:000024c8       __pow10neg                 0048f4c8     LIBCMTD:_constpow_.obj
 0003:00002624       __coninpfh                 0048f624     LIBCMTD:initcon.obj
 0003:00002628       __confh                    0048f628     LIBCMTD:initcon.obj
 0003:0000262c       __lpdays                   0048f62c     LIBCMTD:days.obj
 0003:00002660       __days                     0048f660     LIBCMTD:days.obj
 0003:000026ac       ??_R0?AVout_of_range@std@@@8 0048f6ac     libcpmtd:string.obj
 0003:000026cc       ??_R0?AVinvalid_argument@std@@@8 0048f6cc     libcpmtd:string.obj
 0003:00002fbc       ___fastflag                0048ffbc     LIBCMTD:_fpinit_.obj
 0003:00002fc0       __adjust_fdiv              0048ffc0     LIBCMTD:_fpinit_.obj
 0003:00002fd8       ___pInvalidArgHandler      0048ffd8     LIBCMTD:invarg.obj
 0003:00002fdc       __aenvptr                  0048ffdc     LIBCMTD:wincrt0.obj
 0003:00002fe0       __wenvptr                  0048ffe0     LIBCMTD:wincrt0.obj
 0003:00002fe4       ___error_mode              0048ffe4     LIBCMTD:wincrt0.obj
 0003:00002fe8       ?wsprintffp@@3P6AHPADPBDZZA 0048ffe8     LIBCMTD:_error_.obj
 0003:00002ff4       _gpFlsAlloc                0048fff4     LIBCMTD:tidtable.obj
 0003:00002ff8       _gpFlsGetValue             0048fff8     LIBCMTD:tidtable.obj
 0003:00002ffc       _gpFlsSetValue             0048fffc     LIBCMTD:tidtable.obj
 0003:00003000       _gpFlsFree                 00490000     LIBCMTD:tidtable.obj
 0003:00003004       ?__pInconsistency@@3P6AXXZA 00490004     LIBCMTD:hooks.obj
 0003:000034ac       ?_pfnDumpClient@@3P6AXPAXI@ZA 004904ac     LIBCMTD:dbgheap.obj
 0003:000034b4       ___crtDebugCheckCount      004904b4     LIBCMTD:dbgheap.obj
 0003:000034bc       ?_pnhHeap@@3P6AHI@ZA       004904bc     LIBCMTD:handler.obj
 0003:000034cc       __umaskval                 004904cc     LIBCMTD:crt0dat.obj
 0003:000034d0       ___argc                    004904d0     LIBCMTD:crt0dat.obj
 0003:000034d4       ___argv                    004904d4     LIBCMTD:crt0dat.obj
 0003:000034d8       ___wargv                   004904d8     LIBCMTD:crt0dat.obj
 0003:000034dc       __environ                  004904dc     LIBCMTD:crt0dat.obj
 0003:000034e0       ___initenv                 004904e0     LIBCMTD:crt0dat.obj
 0003:000034e4       __wenviron                 004904e4     LIBCMTD:crt0dat.obj
 0003:000034e8       ___winitenv                004904e8     LIBCMTD:crt0dat.obj
 0003:000034ec       __pgmptr                   004904ec     LIBCMTD:crt0dat.obj
 0003:000034f0       __wpgmptr                  004904f0     LIBCMTD:crt0dat.obj
 0003:000034f4       __exitflag                 004904f4     LIBCMTD:crt0dat.obj
 0003:000034f8       __C_Termination_Done       004904f8     LIBCMTD:crt0dat.obj
 0003:000034fc       __C_Exit_Done              004904fc     LIBCMTD:crt0dat.obj
 0003:0000363c       __crtheap                  0049063c     LIBCMTD:heapinit.obj
 0003:00003958       ___mbulinfo                00490958     LIBCMTD:mbctype.obj
 0003:00003964       ___mbcodepage              00490964     LIBCMTD:mbctype.obj
 0003:00003968       ___ismbcodepage            00490968     LIBCMTD:mbctype.obj
 0003:0000396c       ___mblcid                  0049096c     LIBCMTD:mbctype.obj
 0003:00003970       ___locale_changed          00490970     LIBCMTD:setlocal.obj
 0003:00003974       ___lc_handle               00490974     LIBCMTD:nlsdata2.obj
 0003:0000398c       ___lc_codepage             0049098c     LIBCMTD:nlsdata2.obj
 0003:00003990       ___lc_collate_cp           00490990     LIBCMTD:nlsdata2.obj
 0003:00003994       __outputformat             00490994     LIBCMTD:outputformat.obj
 0003:000039a8       __newmode                  004909a8     LIBCMTD:_newmode.obj
 0003:000039b4       ___sbh_pHeaderDefer        004909b4     LIBCMTD:sbheap.obj
 0003:000039b8       __cflush                   004909b8     LIBCMTD:_file.obj
 0003:000039d4       ?pArgList@UnDecorator@@0PAVReplicator@@A 004909d4     LIBCMTD:undname.obj
 0003:000039d8       ?pZNameList@UnDecorator@@0PAVReplicator@@A 004909d8     LIBCMTD:undname.obj
 0003:000039dc       ?pTemplateArgList@UnDecorator@@0PAVReplicator@@A 004909dc     LIBCMTD:undname.obj
 0003:000039e0       ?gName@UnDecorator@@0PBDB  004909e0     LIBCMTD:undname.obj
 0003:000039e4       ?name@UnDecorator@@0PBDB   004909e4     LIBCMTD:undname.obj
 0003:000039e8       ?outputString@UnDecorator@@0PADA 004909e8     LIBCMTD:undname.obj
 0003:000039ec       ?maxStringLength@UnDecorator@@0HA 004909ec     LIBCMTD:undname.obj
 0003:000039f0       ?disableFlags@UnDecorator@@0KA 004909f0     LIBCMTD:undname.obj
 0003:000039f4       ?m_pGetParameter@UnDecorator@@0P6APADJ@ZA 004909f4     LIBCMTD:undname.obj
 0003:000039f8       ?fExplicitTemplateParams@UnDecorator@@0_NA 004909f8     LIBCMTD:undname.obj
 0003:000039f9       ?fGetTemplateArgumentList@UnDecorator@@0_NA 004909f9     LIBCMTD:undname.obj
 0003:00003a50       ?nodes@?1??make@DNameStatusNode@@SAPAV2@W4DNameStatus@@@Z@4PAV2@A 00490a50     LIBCMTD:undname.obj
 0003:00003a80       ??_B?1??make@DNameStatusNode@@SAPAV1@W4DNameStatus@@@Z@51 00490a80     LIBCMTD:undname.obj
 0003:00003a90       ___pPurecall               00490a90     LIBCMTD:inithelp.obj
 0003:00003ab0       ___lconv_static_null       00490ab0     LIBCMTD:lconv.obj
 0003:00003ab4       __stdbuf                   00490ab4     LIBCMTD:_sftbuf.obj
 0003:00003bf4       ___piob                    00490bf4     <common>
 0003:00003f40       __bufin                    00490f40     <common>
 0003:00004f40       __nstream                  00491f40     <common>
 0003:00004f44       ___sbh_initialized         00491f44     <common>
 0003:00004f58       ___sbh_cntHeaderList       00491f58     <common>
 0003:00004f5c       ___sbh_pHeaderList         00491f5c     <common>
 0003:00004f60       ___sbh_threshold           00491f60     <common>
 0003:00004f64       ___sbh_pHeaderScan         00491f64     <common>
 0003:00004f68       ___sbh_sizeHeaderList      00491f68     <common>
 0003:00004f6c       ___sbh_indGroupDefer       00491f6c     <common>
 0003:00004f70       ___setlc_active            00491f70     <common>
 0003:00004f80       ___unguarded_readlc_active 00491f80     <common>
 0003:00004f84       ___active_heap             00491f84     <common>
 0003:00004f90       __nhandle                  00491f90     <common>
 0003:00004fe0       ___pioinfo                 00491fe0     <common>
 0003:000050e0       ___env_initialized         004920e0     <common>
 0003:000050f0       ___onexitend               004920f0     <common>
 0003:000050f4       ___onexitbegin             004920f4     <common>
 0003:000050f8       ___mbctype_initialized     004920f8     <common>
 0003:000050fc       ___dyn_tls_init_callback   004920fc     <common>
 0003:00005100       __pfnReportHook            00492100     <common>
 0003:00005110       __pReportHookListW         00492110     <common>
 0003:00005114       __pReportHookList          00492114     <common>
 0003:00005118       __debugger_hook_dummy      00492118     <common>
 0003:00005124       ___use_sse2_mathfcns       00492124     <common>
 0003:00005130       __pmatherr                 00492130     <common>
 0003:0000513c       ___sse2_available          0049213c     <common>
 0003:00005148       __acmdln                   00492148     <common>
 0004:00000000       __IMPORT_DESCRIPTOR_d3d9   00493000     d3d9:d3d9.dll
 0004:00000014       __IMPORT_DESCRIPTOR_d3dx9_43 00493014     d3dx9:d3dx9_43.dll
 0004:00000028       __IMPORT_DESCRIPTOR_DINPUT8 00493028     dinput8:DINPUT8.dll
 0004:0000003c       __IMPORT_DESCRIPTOR_KERNEL32 0049303c     kernel32:KERNEL32.dll
 0004:00000050       __IMPORT_DESCRIPTOR_USER32 00493050     user32:USER32.dll
 0004:00000064       __IMPORT_DESCRIPTOR_GDI32  00493064     gdi32:GDI32.dll
 0004:00000078       __NULL_IMPORT_DESCRIPTOR   00493078     d3d9:d3d9.dll
 0004:000003f0       __imp__DirectInput8Create@20 004933f0     dinput8:DINPUT8.dll
 0004:000003f4       \177DINPUT8_NULL_THUNK_DATA 004933f4     dinput8:DINPUT8.dll
 0004:00000420       __imp__CreateSolidBrush@4  00493420     gdi32:GDI32.dll
 0004:00000424       \177GDI32_NULL_THUNK_DATA  00493424     gdi32:GDI32.dll
 0004:00000450       __imp__FlushFileBuffers@4  00493450     kernel32:KERNEL32.dll
 0004:00000454       __imp__CloseHandle@4       00493454     kernel32:KERNEL32.dll
 0004:00000458       __imp__CreateFileA@28      00493458     kernel32:KERNEL32.dll
 0004:0000045c       __imp__GetTimeZoneInformation@4 0049345c     kernel32:KERNEL32.dll
 0004:00000460       __imp__GetLocaleInfoW@16   00493460     kernel32:KERNEL32.dll
 0004:00000464       __imp__GetConsoleOutputCP@0 00493464     kernel32:KERNEL32.dll
 0004:00000468       __imp__WriteConsoleA@20    00493468     kernel32:KERNEL32.dll
 0004:0000046c       __imp__SetStdHandle@8      0049346c     kernel32:KERNEL32.dll
 0004:00000470       __imp__GetUserDefaultLCID@0 00493470     kernel32:KERNEL32.dll
 0004:00000474       __imp__CompareStringA@24   00493474     kernel32:KERNEL32.dll
 0004:00000478       __imp__CompareStringW@24   00493478     kernel32:KERNEL32.dll
 0004:0000047c       __imp__OutputDebugStringA@4 0049347c     kernel32:KERNEL32.dll
 0004:00000480       __imp__GetTickCount@0      00493480     kernel32:KERNEL32.dll
 0004:00000484       __imp__GetModuleHandleA@4  00493484     kernel32:KERNEL32.dll
 0004:00000488       __imp__DebugBreak@0        00493488     kernel32:KERNEL32.dll
 0004:0000048c       __imp__SetEnvironmentVariableA@8 0049348c     kernel32:KERNEL32.dll
 0004:00000490       __imp__IsValidLocale@8     00493490     kernel32:KERNEL32.dll
 0004:00000494       __imp__GetLocaleInfoA@16   00493494     kernel32:KERNEL32.dll
 0004:00000498       __imp__GetDateFormatA@24   00493498     kernel32:KERNEL32.dll
 0004:0000049c       __imp__GetTimeFormatA@24   0049349c     kernel32:KERNEL32.dll
 0004:000004a0       __imp__GetStringTypeW@16   004934a0     kernel32:KERNEL32.dll
 0004:000004a4       __imp__GetStringTypeA@20   004934a4     kernel32:KERNEL32.dll
 0004:000004a8       __imp__LCMapStringW@24     004934a8     kernel32:KERNEL32.dll
 0004:000004ac       __imp__LCMapStringA@24     004934ac     kernel32:KERNEL32.dll
 0004:000004b0       __imp__InterlockedExchange@8 004934b0     kernel32:KERNEL32.dll
 0004:000004b4       __imp__GetConsoleMode@8    004934b4     kernel32:KERNEL32.dll
 0004:000004b8       __imp__GetConsoleCP@0      004934b8     kernel32:KERNEL32.dll
 0004:000004bc       __imp__SetFilePointer@16   004934bc     kernel32:KERNEL32.dll
 0004:000004c0       __imp__VirtualAlloc@16     004934c0     kernel32:KERNEL32.dll
 0004:000004c4       __imp__HeapReAlloc@16      004934c4     kernel32:KERNEL32.dll
 0004:000004c8       __imp__HeapSize@12         004934c8     kernel32:KERNEL32.dll
 0004:000004cc       __imp__InitializeCriticalSectionAndSpinCount@8 004934cc     kernel32:KERNEL32.dll
 0004:000004d0       __imp__FreeLibrary@4       004934d0     kernel32:KERNEL32.dll
 0004:000004d4       __imp__VirtualQuery@12     004934d4     kernel32:KERNEL32.dll
 0004:000004d8       __imp__EnumSystemLocalesA@8 004934d8     kernel32:KERNEL32.dll
 0004:000004dc       __imp__InterlockedDecrement@4 004934dc     kernel32:KERNEL32.dll
 0004:000004e0       __imp__RtlUnwind@16        004934e0     kernel32:KERNEL32.dll
 0004:000004e4       __imp__RaiseException@16   004934e4     kernel32:KERNEL32.dll
 0004:000004e8       __imp__GetSystemTimeAsFileTime@4 004934e8     kernel32:KERNEL32.dll
 0004:000004ec       __imp__TerminateProcess@8  004934ec     kernel32:KERNEL32.dll
 0004:000004f0       __imp__GetCurrentProcess@0 004934f0     kernel32:KERNEL32.dll
 0004:000004f4       __imp__UnhandledExceptionFilter@4 004934f4     kernel32:KERNEL32.dll
 0004:000004f8       __imp__SetUnhandledExceptionFilter@4 004934f8     kernel32:KERNEL32.dll
 0004:000004fc       __imp__IsDebuggerPresent@0 004934fc     kernel32:KERNEL32.dll
 0004:00000500       __imp__GetModuleFileNameW@12 00493500     kernel32:KERNEL32.dll
 0004:00000504       __imp__GetCommandLineA@0   00493504     kernel32:KERNEL32.dll
 0004:00000508       __imp__GetStartupInfoA@4   00493508     kernel32:KERNEL32.dll
 0004:0000050c       __imp__GetProcAddress@8    0049350c     kernel32:KERNEL32.dll
 0004:00000510       __imp__WideCharToMultiByte@32 00493510     kernel32:KERNEL32.dll
 0004:00000514       __imp__MultiByteToWideChar@24 00493514     kernel32:KERNEL32.dll
 0004:00000518       __imp__lstrlenA@4          00493518     kernel32:KERNEL32.dll
 0004:0000051c       __imp__LoadLibraryA@4      0049351c     kernel32:KERNEL32.dll
 0004:00000520       __imp__TlsGetValue@4       00493520     kernel32:KERNEL32.dll
 0004:00000524       __imp__GetModuleHandleW@4  00493524     kernel32:KERNEL32.dll
 0004:00000528       __imp__TlsAlloc@0          00493528     kernel32:KERNEL32.dll
 0004:0000052c       __imp__TlsSetValue@8       0049352c     kernel32:KERNEL32.dll
 0004:00000530       __imp__GetCurrentThreadId@0 00493530     kernel32:KERNEL32.dll
 0004:00000534       __imp__TlsFree@4           00493534     kernel32:KERNEL32.dll
 0004:00000538       __imp__InterlockedIncrement@4 00493538     kernel32:KERNEL32.dll
 0004:0000053c       __imp__SetLastError@4      0049353c     kernel32:KERNEL32.dll
 0004:00000540       __imp__GetLastError@0      00493540     kernel32:KERNEL32.dll
 0004:00000544       __imp__InitializeCriticalSection@4 00493544     kernel32:KERNEL32.dll
 0004:00000548       __imp__GetCurrentThread@0  00493548     kernel32:KERNEL32.dll
 0004:0000054c       __imp__DeleteCriticalSection@4 0049354c     kernel32:KERNEL32.dll
 0004:00000550       __imp__EnterCriticalSection@4 00493550     kernel32:KERNEL32.dll
 0004:00000554       __imp__LeaveCriticalSection@4 00493554     kernel32:KERNEL32.dll
 0004:00000558       __imp__FatalAppExitA@8     00493558     kernel32:KERNEL32.dll
 0004:0000055c       __imp__HeapValidate@12     0049355c     kernel32:KERNEL32.dll
 0004:00000560       __imp__IsBadReadPtr@8      00493560     kernel32:KERNEL32.dll
 0004:00000564       __imp__GetStdHandle@4      00493564     kernel32:KERNEL32.dll
 0004:00000568       __imp__WriteFile@20        00493568     kernel32:KERNEL32.dll
 0004:0000056c       __imp__WriteConsoleW@20    0049356c     kernel32:KERNEL32.dll
 0004:00000570       __imp__GetFileType@4       00493570     kernel32:KERNEL32.dll
 0004:00000574       __imp__OutputDebugStringW@4 00493574     kernel32:KERNEL32.dll
 0004:00000578       __imp__Sleep@4             00493578     kernel32:KERNEL32.dll
 0004:0000057c       __imp__ExitProcess@4       0049357c     kernel32:KERNEL32.dll
 0004:00000580       __imp__SetConsoleCtrlHandler@8 00493580     kernel32:KERNEL32.dll
 0004:00000584       __imp__LoadLibraryW@4      00493584     kernel32:KERNEL32.dll
 0004:00000588       __imp__QueryPerformanceCounter@4 00493588     kernel32:KERNEL32.dll
 0004:0000058c       __imp__GetCurrentProcessId@0 0049358c     kernel32:KERNEL32.dll
 0004:00000590       __imp__GetModuleFileNameA@12 00493590     kernel32:KERNEL32.dll
 0004:00000594       __imp__FreeEnvironmentStringsA@4 00493594     kernel32:KERNEL32.dll
 0004:00000598       __imp__GetEnvironmentStrings@0 00493598     kernel32:KERNEL32.dll
 0004:0000059c       __imp__FreeEnvironmentStringsW@4 0049359c     kernel32:KERNEL32.dll
 0004:000005a0       __imp__GetEnvironmentStringsW@0 004935a0     kernel32:KERNEL32.dll
 0004:000005a4       __imp__SetHandleCount@4    004935a4     kernel32:KERNEL32.dll
 0004:000005a8       __imp__HeapDestroy@4       004935a8     kernel32:KERNEL32.dll
 0004:000005ac       __imp__HeapCreate@12       004935ac     kernel32:KERNEL32.dll
 0004:000005b0       __imp__HeapFree@12         004935b0     kernel32:KERNEL32.dll
 0004:000005b4       __imp__VirtualFree@12      004935b4     kernel32:KERNEL32.dll
 0004:000005b8       __imp__GetACP@0            004935b8     kernel32:KERNEL32.dll
 0004:000005bc       __imp__GetOEMCP@0          004935bc     kernel32:KERNEL32.dll
 0004:000005c0       __imp__GetCPInfo@8         004935c0     kernel32:KERNEL32.dll
 0004:000005c4       __imp__IsValidCodePage@4   004935c4     kernel32:KERNEL32.dll
 0004:000005c8       __imp__HeapAlloc@12        004935c8     kernel32:KERNEL32.dll
 0004:000005cc       __imp__GetProcessHeap@0    004935cc     kernel32:KERNEL32.dll
 0004:000005d0       \177KERNEL32_NULL_THUNK_DATA 004935d0     kernel32:KERNEL32.dll
 0004:00000648       __imp__SetWindowTextA@8    00493648     user32:USER32.dll
 0004:0000064c       __imp__PostQuitMessage@4   0049364c     user32:USER32.dll
 0004:00000650       __imp__DefWindowProcA@16   00493650     user32:USER32.dll
 0004:00000654       __imp__RegisterClassA@4    00493654     user32:USER32.dll
 0004:00000658       __imp__AdjustWindowRect@12 00493658     user32:USER32.dll
 0004:0000065c       __imp__GetSystemMetrics@4  0049365c     user32:USER32.dll
 0004:00000660       __imp__CreateWindowExA@48  00493660     user32:USER32.dll
 0004:00000664       __imp__GetDC@4             00493664     user32:USER32.dll
 0004:00000668       __imp__ReleaseDC@8         00493668     user32:USER32.dll
 0004:0000066c       __imp__DestroyWindow@4     0049366c     user32:USER32.dll
 0004:00000670       __imp__UnregisterClassA@8  00493670     user32:USER32.dll
 0004:00000674       __imp__ChangeDisplaySettingsA@8 00493674     user32:USER32.dll
 0004:00000678       __imp__MessageBoxA@16      00493678     user32:USER32.dll
 0004:0000067c       __imp__ShowCursor@4        0049367c     user32:USER32.dll
 0004:00000680       __imp__PeekMessageA@20     00493680     user32:USER32.dll
 0004:00000684       __imp__TranslateMessage@4  00493684     user32:USER32.dll
 0004:00000688       __imp__DispatchMessageA@4  00493688     user32:USER32.dll
 0004:0000068c       __imp__GetCursorPos@4      0049368c     user32:USER32.dll
 0004:00000690       \177USER32_NULL_THUNK_DATA 00493690     user32:USER32.dll
 0004:000006c8       __imp__Direct3DCreate9@4   004936c8     d3d9:d3d9.dll
 0004:000006cc       \177d3d9_NULL_THUNK_DATA   004936cc     d3d9:d3d9.dll
 0004:000006f8       __imp__D3DXCompileShader@40 004936f8     d3dx9:d3dx9_43.dll
 0004:000006fc       __imp__D3DXGetVertexShaderProfile@4 004936fc     d3dx9:d3dx9_43.dll
 0004:00000700       __imp__D3DXMatrixLookAtRH@16 00493700     d3dx9:d3dx9_43.dll
 0004:00000704       __imp__D3DXMatrixPerspectiveFovRH@20 00493704     d3dx9:d3dx9_43.dll
 0004:00000708       __imp__D3DXGetPixelShaderProfile@4 00493708     d3dx9:d3dx9_43.dll
 0004:0000070c       __imp__D3DXMatrixRotationX@8 0049370c     d3dx9:d3dx9_43.dll
 0004:00000710       __imp__D3DXMatrixRotationY@8 00493710     d3dx9:d3dx9_43.dll
 0004:00000714       __imp__D3DXMatrixMultiply@12 00493714     d3dx9:d3dx9_43.dll
 0004:00000718       __imp__D3DXVec3TransformNormal@12 00493718     d3dx9:d3dx9_43.dll
 0004:0000071c       __imp__D3DXMatrixInverse@12 0049371c     d3dx9:d3dx9_43.dll
 0004:00000720       \177d3dx9_43_NULL_THUNK_DATA 00493720     d3dx9:d3dx9_43.dll

 entry point at        0001:00013090

